composite_setup_complete:
	.fnstart
	@ args = 0, pretend = 0, frame = 0
	@ frame_needed = 0, uses_anonymous_args = 0
	@ link register save eliminated.
	bx	lr
	.fnend
	.size	composite_setup_complete, .-composite_setup_complete
	.align	2
	.syntax unified
	.arm
	.fpu softvfp
	.type	diag_function_disable, %function
diag_function_disable:
	.fnstart
	@ args = 0, pretend = 0, frame = 0
	@ frame_needed = 0, uses_anonymous_args = 0
	strd	r4, [sp, #-16]!
	.save {r4, r5, r6, lr}
	add	r5, r0, #108
	mov	r4, r0
	str	r6, [sp, #8]
	mov	r0, r5
	mov	r6, #0
	str	lr, [sp, #12]
	bl	_raw_spin_lock_irqsave
	mov	r1, r0
	str	r6, [r4, #112]
	mov	r0, r5
	bl	_raw_spin_unlock_irqrestore
	ldr	r3, [r4, #124]
	cmp	r3, r6
	beq	.L4
	ldr	r5, [r3, #12]
	cmp	r5, r6
	beq	.L4
	mov	r2, r6
	mov	r1, #1
	ldr	r0, [r3, #16]
	blx	r5
.L4:
	ldr	r0, [r4, #88]
	mov	r5, #0
	ldr	r3, [r0, #8]
	ldr	r3, [r3, #4]
	blx	r3
	ldr	r3, [r4, #88]
	str	r5, [r3]
	ldr	r0, [r4, #84]
	ldr	r3, [r0, #8]
	ldr	r3, [r3, #4]
	blx	r3
	ldr	r3, [r4, #84]
	str	r5, [r3]
	ldr	r3, [r4, #124]
	cmp	r3, r5
	strne	r5, [r3, #20]
	ldrd	r4, [sp]
	ldr	r6, [sp, #8]
	add	sp, sp, #12
	ldr	pc, [sp], #4
	.fnend
	.size	diag_function_disable, .-diag_function_disable
	.align	2
	.syntax unified
	.arm
	.fpu softvfp
	.type	debug_reset_stats, %function
debug_reset_stats:
	.fnstart
	@ args = 0, pretend = 0, frame = 0
	@ frame_needed = 0, uses_anonymous_args = 0
	.save {lr}
	str	lr, [sp, #-4]!
	movw	lr, #:lower16:.LANCHOR0
	movt	lr, #:upper16:.LANCHOR0
	ldr	r3, [lr]
	cmp	lr, r3
	beq	.L17
	sub	r3, r3, #4
	mov	ip, #0
.L19:
	ldr	r1, [r3, #20]
	cmp	r1, #0
	beq	.L18
	str	ip, [r1, #128]
	str	ip, [r1, #132]
	str	ip, [r1, #136]
.L18:
	ldr	r3, [r3, #4]
	cmp	lr, r3
	sub	r3, r3, #4
	bne	.L19
.L17:
	mov	r0, r2
	ldr	pc, [sp], #4
	.fnend
	.size	debug_reset_stats, .-debug_reset_stats
	.align	2
	.syntax unified
	.arm
	.fpu softvfp
	.type	debug_open, %function
debug_open:
	.fnstart
	@ args = 0, pretend = 0, frame = 0
	@ frame_needed = 0, uses_anonymous_args = 0
	@ link register save eliminated.
	mov	r0, #0
	bx	lr
	.fnend
	.size	debug_open, .-debug_open
	.align	2
	.syntax unified
	.arm
	.fpu softvfp
	.type	qdss_eps_disable, %function
qdss_eps_disable:
	.fnstart
	@ args = 0, pretend = 0, frame = 0
	@ frame_needed = 0, uses_anonymous_args = 0
	.save {r4, lr}
	str	r4, [sp, #-8]!
	mov	r4, r0
	str	lr, [sp, #4]
	ldrb	r3, [r0, #192]	@ zero_extendqisi2
	tst	r3, #2
	beq	.L27
	ldr	r0, [r0, #104]
	ldr	r3, [r0, #8]
	ldr	r3, [r3, #4]
	blx	r3
	ldrb	r2, [r4, #192]	@ zero_extendqisi2
	bfc	r2, #1, #1
	uxtb	r3, r2
	strb	r2, [r4, #192]
.L27:
	tst	r3, #4
	beq	.L28
	ldr	r0, [r4, #100]
	ldr	r3, [r0, #8]
	ldr	r3, [r3, #4]
	blx	r3
	ldrb	r2, [r4, #192]	@ zero_extendqisi2
	bfc	r2, #2, #1
	uxtb	r3, r2
	strb	r2, [r4, #192]
.L28:
	tst	r3, #1
	beq	.L26
	ldr	r0, [r4, #108]
	ldr	r3, [r0, #8]
	ldr	r3, [r3, #4]
	blx	r3
	ldrb	r3, [r4, #192]	@ zero_extendqisi2
	bfc	r3, #0, #1
	strb	r3, [r4, #192]
.L26:
	ldr	r4, [sp]
	add	sp, sp, #4
	ldr	pc, [sp], #4
	.fnend
	.size	qdss_eps_disable, .-qdss_eps_disable
	.align	2
	.syntax unified
	.arm
	.fpu softvfp
	.type	rmnet_txcommand_complete, %function
rmnet_txcommand_complete:
	.fnstart
	@ args = 0, pretend = 0, frame = 0
	@ frame_needed = 0, uses_anonymous_args = 0
	strd	r4, [sp, #-16]!
	.save {r4, r5, r6, lr}
	str	r6, [sp, #8]
	str	lr, [sp, #12]
	ldr	r4, [r1, #32]
	add	r5, r4, #164
	mov	r0, r5
	bl	_raw_spin_lock
	ldr	r3, [r4, #440]
	mov	r0, r5
	add	r3, r3, #1
	str	r3, [r4, #440]
	ldrd	r4, [sp]
	ldr	r6, [sp, #8]
	ldr	lr, [sp, #12]
	add	sp, sp, #16
	b	_raw_spin_unlock
	.fnend
	.size	rmnet_txcommand_complete, .-rmnet_txcommand_complete
	.align	2
	.syntax unified
	.arm
	.fpu softvfp
	.type	rmnet_smd_debug_reset_stats, %function
rmnet_smd_debug_reset_stats:
	.fnstart
	@ args = 0, pretend = 0, frame = 0
	@ frame_needed = 0, uses_anonymous_args = 0
	strd	r4, [sp, #-16]!
	.save {r4, r5, r6, lr}
	str	r6, [sp, #8]
	mov	r6, r2
	str	lr, [sp, #12]
	ldr	r4, [r0, #124]
	add	r5, r4, #164
	mov	r0, r5
	bl	_raw_spin_lock_irqsave
	mov	r3, #0
	mov	r1, r0
	mov	r0, r5
	str	r3, [r4, #424]
	str	r3, [r4, #428]
	str	r3, [r4, #432]
	str	r3, [r4, #436]
	str	r3, [r4, #440]
	str	r3, [r4, #444]
	str	r3, [r4, #448]
	str	r3, [r4, #452]
	bl	_raw_spin_unlock_irqrestore
	ldrd	r4, [sp]
	mov	r0, r6
	ldr	r6, [sp, #8]
	add	sp, sp, #12
	ldr	pc, [sp], #4
	.fnend
	.size	rmnet_smd_debug_reset_stats, .-rmnet_smd_debug_reset_stats
	.align	2
	.syntax unified
	.arm
	.fpu softvfp
	.type	rmnet_smd_debug_open, %function
rmnet_smd_debug_open:
	.fnstart
	@ args = 0, pretend = 0, frame = 0
	@ frame_needed = 0, uses_anonymous_args = 0
	@ link register save eliminated.
	ldr	r3, [r0, #328]
	mov	r0, #0
	str	r3, [r1, #124]
	bx	lr
	.fnend
	.size	rmnet_smd_debug_open, .-rmnet_smd_debug_open
	.align	2
	.syntax unified
	.arm
	.fpu softvfp
	.type	rmnet_sdio_set_modem_cbits_w, %function
rmnet_sdio_set_modem_cbits_w:
	.fnstart
	@ args = 0, pretend = 0, frame = 0
	@ frame_needed = 0, uses_anonymous_args = 0
	@ link register save eliminated.
	ldr	r3, [r0, #-12]
	bx	lr
	.fnend
	.size	rmnet_sdio_set_modem_cbits_w, .-rmnet_sdio_set_modem_cbits_w
	.align	2
	.syntax unified
	.arm
	.fpu softvfp
	.type	rmnet_sdio_disconnect_work, %function
rmnet_sdio_disconnect_work:
	.fnstart
	@ args = 0, pretend = 0, frame = 0
	@ frame_needed = 0, uses_anonymous_args = 0
	@ link register save eliminated.
	bx	lr
	.fnend
	.size	rmnet_sdio_disconnect_work, .-rmnet_sdio_disconnect_work
	.align	2
	.syntax unified
	.arm
	.fpu softvfp
	.type	rmnet_sdio_reset_stats, %function
rmnet_sdio_reset_stats:
	.fnstart
	@ args = 0, pretend = 0, frame = 0
	@ frame_needed = 0, uses_anonymous_args = 0
	@ link register save eliminated.
	ldr	r3, [r0, #124]
	mov	r1, #0
	mov	r0, r2
	str	r1, [r3, #328]
	str	r1, [r3, #356]
	str	r1, [r3, #360]
	str	r1, [r3, #364]
	str	r1, [r3, #368]
	str	r1, [r3, #372]
	bx	lr
	.fnend
	.size	rmnet_sdio_reset_stats, .-rmnet_sdio_reset_stats
	.align	2
	.syntax unified
	.arm
	.fpu softvfp
	.type	rmnet_mux_suspend, %function
rmnet_mux_suspend:
	.fnstart
	@ args = 0, pretend = 0, frame = 0
	@ frame_needed = 0, uses_anonymous_args = 0
	@ link register save eliminated.
	ldr	r3, [r0, #372]
	cmp	r3, #0
	beq	.L48
	ldr	r3, [r0, #352]
	bic	r3, r3, #2
	str	r3, [r0, #352]
.L48:
	bx	lr
	.fnend
	.size	rmnet_mux_suspend, .-rmnet_mux_suspend
	.align	2
	.syntax unified
	.arm
	.fpu softvfp
	.type	rmnet_mux_unbind, %function
rmnet_mux_unbind:
	.fnstart
	@ args = 0, pretend = 0, frame = 0
	@ frame_needed = 0, uses_anonymous_args = 0
	@ link register save eliminated.
	mov	r3, #0
	str	r3, [r1, #172]
	bx	lr
	.fnend
	.size	rmnet_mux_unbind, .-rmnet_mux_unbind
	.align	2
	.syntax unified
	.arm
	.fpu softvfp
	.type	rmnet_mux_reset_stats, %function
rmnet_mux_reset_stats:
	.fnstart
	@ args = 0, pretend = 0, frame = 0
	@ frame_needed = 0, uses_anonymous_args = 0
	@ link register save eliminated.
	ldr	r3, [r0, #124]
	mov	r1, #0
	mov	r0, r2
	str	r1, [r3, #312]
	str	r1, [r3, #400]
	str	r1, [r3, #404]
	str	r1, [r3, #408]
	str	r1, [r3, #412]
	str	r1, [r3, #416]
	str	r1, [r3, #420]
	str	r1, [r3, #424]
	bx	lr
	.fnend
	.size	rmnet_mux_reset_stats, .-rmnet_mux_reset_stats
	.align	2
	.global	usb_rmnet_mux_ctrl_release
	.syntax unified
	.arm
	.fpu softvfp
	.type	usb_rmnet_mux_ctrl_release, %function
usb_rmnet_mux_ctrl_release:
	.fnstart
	@ args = 0, pretend = 0, frame = 0
	@ frame_needed = 0, uses_anonymous_args = 0
	strd	r4, [sp, #-24]!
	.save {r4, r5, r6, r7, r8, lr}
	mov	r5, r1
	mov	r4, #0
	strd	r6, [sp, #8]
	str	r8, [sp, #16]
	str	lr, [sp, #20]
	ldr	r7, [r1, #124]
	add	r6, r7, #368
	mov	r0, r6
	bl	_raw_spin_lock_irqsave
	mov	r1, r0
	str	r4, [r7, #356]
	mov	r0, r6
	str	r4, [r5, #124]
	bl	_raw_spin_unlock_irqrestore
	ldrd	r6, [sp, #8]
	mov	r0, r4
	ldrd	r4, [sp]
	ldr	r8, [sp, #16]
	add	sp, sp, #20
	ldr	pc, [sp], #4
	.fnend
	.size	usb_rmnet_mux_ctrl_release, .-usb_rmnet_mux_ctrl_release
	.align	2
	.syntax unified
	.arm
	.fpu softvfp
	.type	audio_disable, %function
audio_disable:
	.fnstart
	@ args = 0, pretend = 0, frame = 0
	@ frame_needed = 0, uses_anonymous_args = 0
	ldrb	r3, [r0, #152]	@ zero_extendqisi2
	cmp	r3, #0
	bxeq	lr
	.save {r4, lr}
	str	r4, [sp, #-8]!
	mov	r4, r0
	str	lr, [sp, #4]
	ldr	r0, [r0, #104]
	ldr	r3, [r0, #8]
	ldr	r3, [r3, #4]
	blx	r3
	mov	r3, #0
	strb	r3, [r4, #152]
	ldr	r4, [sp]
	add	sp, sp, #4
	ldr	pc, [sp], #4
	.fnend
	.size	audio_disable, .-audio_disable
	.align	2
	.syntax unified
	.arm
	.fpu softvfp
	.type	audio_pcm_close, %function
audio_pcm_close:
	.fnstart
	@ args = 0, pretend = 0, frame = 0
	@ frame_needed = 0, uses_anonymous_args = 0
	strd	r4, [sp, #-16]!
	.save {r4, r5, r6, lr}
	mov	r4, #0
	str	r6, [sp, #8]
	str	lr, [sp, #12]
	ldr	r6, [r0, #8]
	add	r5, r6, #108
	mov	r0, r5
	bl	_raw_spin_lock_irqsave
	mov	r1, r0
	str	r4, [r6, #92]
	mov	r0, r5
	bl	_raw_spin_unlock_irqrestore
	ldr	r6, [sp, #8]
	mov	r0, r4
	ldrd	r4, [sp]
	add	sp, sp, #12
	ldr	pc, [sp], #4
	.fnend
	.size	audio_pcm_close, .-audio_pcm_close
	.align	2
	.syntax unified
	.arm
	.fpu softvfp
	.type	audio_pcm_prepare, %function
audio_pcm_prepare:
	.fnstart
	@ args = 0, pretend = 0, frame = 0
	@ frame_needed = 0, uses_anonymous_args = 0
	mov	ip, r0
	.save {r4, lr}
	str	r4, [sp, #-8]!
	str	lr, [sp, #4]
	ldr	r1, [ip, #212]
	mov	lr, #0
	mov	r0, lr
	ldr	r4, [r1, #60]
	ldr	r2, [r1, #80]
	ldr	r3, [r1, #200]
	mul	r2, r2, r4
	str	lr, [r3, #128]
	lsr	r2, r2, #3
	str	r2, [r3, #124]
	ldr	r2, [r1, #540]
	str	r2, [r3, #112]
	ldr	ip, [ip, #212]
	ldr	lr, [ip, #68]
	ldr	r1, [ip, #80]
	str	r2, [r3, #120]
	mul	r1, r1, lr
	add	r2, r2, r1, lsr #3
	str	r2, [r3, #116]
	ldr	r4, [sp]
	add	sp, sp, #4
	ldr	pc, [sp], #4
	.fnend
	.size	audio_pcm_prepare, .-audio_pcm_prepare
	.align	2
	.syntax unified
	.arm
	.fpu softvfp
	.type	audio_pcm_pointer, %function
audio_pcm_pointer:
	.fnstart
	@ args = 0, pretend = 0, frame = 0
	@ frame_needed = 0, uses_anonymous_args = 0
	@ link register save eliminated.
	ldr	r3, [r0, #212]
	ldr	r0, [r3, #80]
	ldr	r2, [r3, #200]
	ldr	r1, [r2, #112]
	ldr	r3, [r2, #120]
	sub	r3, r3, r1
	lsl	r3, r3, #3
	udiv	r0, r3, r0
	bx	lr
	.fnend
	.size	audio_pcm_pointer, .-audio_pcm_pointer
	.align	2
	.syntax unified
	.arm
	.fpu softvfp
	.type	ffs_ep0_ioctl, %function
ffs_ep0_ioctl:
	.fnstart
	@ args = 0, pretend = 0, frame = 0
	@ frame_needed = 0, uses_anonymous_args = 0
	movw	ip, #26496
	ldr	r0, [r0, #124]
	cmp	r1, ip
	beq	.L85
	ldr	r0, [r0]
	cmp	r0, #0
	beq	.L79
	ldr	r3, [r0]
	ldr	r3, [r3, #24]
	cmp	r3, #0
	beq	.L79
	bx	r3
.L85:
	mov	r3, r2
	ldr	r2, [r0, #132]
	cmp	r2, #0
	beq	.L76
	.save {lr}
	str	lr, [sp, #-4]!
	ldr	r1, [r2, #8]
	ldr	lr, [r2, #32]
	ldrh	r1, [r1, #178]
	cmp	r1, #0
	beq	.L77
	uxtb	r2, r3
	mov	ip, lr
.L75:
	mov	r3, ip
	ldrsh	r0, [r3], #2
	cmp	r0, #0
	blt	.L74
	cmp	r0, r2
	beq	.L86
.L74:
	subs	r1, r1, #1
	mov	ip, r3
	bne	.L75
.L77:
	mvn	r0, #32
	ldr	pc, [sp], #4
.L86:
	sub	r0, ip, lr
	asr	r0, r0, #1
	ldr	pc, [sp], #4
.L79:
	mvn	r0, #24
	bx	lr
.L76:
	mvn	r0, #18
	bx	lr
	.fnend
	.size	ffs_ep0_ioctl, .-ffs_ep0_ioctl
	.align	2
	.syntax unified
	.arm
	.fpu softvfp
	.type	gs_writes_finished, %function
gs_writes_finished:
	.fnstart
	@ args = 0, pretend = 0, frame = 0
	@ frame_needed = 0, uses_anonymous_args = 0
	strd	r4, [sp, #-16]!
	.save {r4, r5, r6, lr}
	mov	r5, r0
	str	r6, [sp, #8]
	str	lr, [sp, #12]
	bl	_raw_spin_lock_irq
	ldr	r3, [r5, #4]
	cmp	r3, #0
	moveq	r4, #1
	beq	.L88
	ldr	r2, [r5, #92]
	ldr	r1, [r5, #100]
	ldr	r3, [r5, #104]
	add	r4, r3, r2
	sub	r3, r4, r1
	udiv	r4, r3, r2
	mls	r4, r2, r4, r3
	clz	r4, r4
	lsr	r4, r4, #5
.L88:
	mov	r0, r5
	bl	_raw_spin_unlock_irq
	ldr	r6, [sp, #8]
	mov	r0, r4
	ldrd	r4, [sp]
	add	sp, sp, #12
	ldr	pc, [sp], #4
	.fnend
	.size	gs_writes_finished, .-gs_writes_finished
	.align	2
	.syntax unified
	.arm
	.fpu softvfp
	.type	gs_write_room, %function
gs_write_room:
	.fnstart
	@ args = 0, pretend = 0, frame = 0
	@ frame_needed = 0, uses_anonymous_args = 0
	strd	r4, [sp, #-16]!
	.save {r4, r5, r6, lr}
	str	r6, [sp, #8]
	str	lr, [sp, #12]
	ldr	r4, [r0, #272]
	mov	r0, r4
	bl	_raw_spin_lock_irqsave
	ldr	r3, [r4, #4]
	mov	r1, r0
	cmp	r3, #0
	moveq	r5, r3
	beq	.L92
	ldr	r2, [r4, #92]
	ldr	r3, [r4, #100]
	ldr	r0, [r4, #104]
	add	r3, r3, r2
	sub	r3, r3, r0
	sub	r3, r3, #1
	udiv	r5, r3, r2
	mls	r5, r2, r5, r3
.L92:
	mov	r0, r4
	bl	_raw_spin_unlock_irqrestore
	ldr	r6, [sp, #8]
	mov	r0, r5
	ldrd	r4, [sp]
	add	sp, sp, #12
	ldr	pc, [sp], #4
	.fnend
	.size	gs_write_room, .-gs_write_room
	.align	2
	.syntax unified
	.arm
	.fpu softvfp
	.type	gs_chars_in_buffer, %function
gs_chars_in_buffer:
	.fnstart
	@ args = 0, pretend = 0, frame = 0
	@ frame_needed = 0, uses_anonymous_args = 0
	.save {r4, lr}
	str	r4, [sp, #-8]!
	str	lr, [sp, #4]
	ldr	r4, [r0, #272]
	mov	r0, r4
	bl	_raw_spin_lock_irqsave
	ldr	r2, [r4, #92]
	mov	r1, r0
	mov	r0, r4
	ldr	ip, [r4, #100]
	ldr	r3, [r4, #104]
	add	r3, r3, r2
	sub	r3, r3, ip
	udiv	r4, r3, r2
	mls	r4, r2, r4, r3
	bl	_raw_spin_unlock_irqrestore
	mov	r0, r4
	ldr	r4, [sp]
	add	sp, sp, #4
	ldr	pc, [sp], #4
	.fnend
	.size	gs_chars_in_buffer, .-gs_chars_in_buffer
	.align	2
	.syntax unified
	.arm
	.fpu softvfp
	.type	gs_break_ctl, %function
gs_break_ctl:
	.fnstart
	@ args = 0, pretend = 0, frame = 0
	@ frame_needed = 0, uses_anonymous_args = 0
	strd	r4, [sp, #-16]!
	.save {r4, r5, r6, lr}
	str	r6, [sp, #8]
	mov	r6, r1
	str	lr, [sp, #12]
	ldr	r5, [r0, #272]
	mov	r0, r5
	bl	_raw_spin_lock_irq
	ldr	r0, [r5, #4]
	cmp	r0, #0
	moveq	r4, r0
	beq	.L98
	ldr	r4, [r0, #124]
	cmp	r4, #0
	beq	.L98
	mov	r1, r6
	blx	r4
	mov	r4, r0
.L98:
	mov	r0, r5
	bl	_raw_spin_unlock_irq
	ldr	r6, [sp, #8]
	mov	r0, r4
	ldrd	r4, [sp]
	add	sp, sp, #12
	ldr	pc, [sp], #4
	.fnend
	.size	gs_break_ctl, .-gs_break_ctl
	.align	2
	.syntax unified
	.arm
	.fpu softvfp
	.type	gs_tiocmget, %function
gs_tiocmget:
	.fnstart
	@ args = 0, pretend = 0, frame = 0
	@ frame_needed = 0, uses_anonymous_args = 0
	strd	r4, [sp, #-16]!
	.save {r4, r5, r6, lr}
	str	r6, [sp, #8]
	str	lr, [sp, #12]
	ldr	r6, [r0, #272]
	mov	r0, r6
	bl	_raw_spin_lock_irq
	ldr	r5, [r6, #4]
	cmp	r5, #0
	mvneq	r4, #18
	beq	.L103
	ldr	r4, [r5, #108]
	cmp	r4, #0
	beq	.L104
	mov	r0, r5
	blx	r4
	cmp	r0, #0
	movne	r4, #2
	moveq	r4, #0
.L104:
	ldr	r3, [r5, #112]
	cmp	r3, #0
	beq	.L106
	mov	r0, r5
	blx	r3
	cmp	r0, #0
	orrne	r4, r4, #4
.L106:
	ldrh	r3, [r5, #104]
	tst	r3, #64
	orrne	r4, r4, #64
	tst	r3, #128
	orrne	r4, r4, #128
.L103:
	mov	r0, r6
	bl	_raw_spin_unlock_irq
	ldr	r6, [sp, #8]
	mov	r0, r4
	ldrd	r4, [sp]
	add	sp, sp, #12
	ldr	pc, [sp], #4
	.fnend
	.size	gs_tiocmget, .-gs_tiocmget
	.align	2
	.syntax unified
	.arm
	.fpu softvfp
	.type	gs_tiocmset, %function
gs_tiocmset:
	.fnstart
	@ args = 0, pretend = 0, frame = 0
	@ frame_needed = 0, uses_anonymous_args = 0
	strd	r4, [sp, #-32]!
	.save {r4, r5, r6, r7, r8, r9, r10, lr}
	strd	r6, [sp, #8]
	mov	r6, r2
	strd	r8, [sp, #16]
	mov	r8, r1
	str	r10, [sp, #24]
	str	lr, [sp, #28]
	ldr	r7, [r0, #272]
	mov	r0, r7
	bl	_raw_spin_lock_irq
	ldr	r4, [r7, #4]
	cmp	r4, #0
	beq	.L129
	ands	r5, r8, #128
	and	r9, r6, #128
	beq	.L126
	ldr	r5, [r4, #132]
	cmp	r5, #0
	beq	.L127
	ldrh	r3, [r4, #104]
	mov	r1, #1
	mov	r0, r4
	orr	r3, r3, #128
	strh	r3, [r4, #104]	@ movhi
	blx	r5
	mov	r5, r0
.L126:
	cmp	r9, #0
	beq	.L127
	ldr	r2, [r4, #132]
	cmp	r2, #0
	beq	.L127
	ldrh	r3, [r4, #104]
	mov	r1, #0
	mov	r0, r4
	bic	r3, r3, #128
	strh	r3, [r4, #104]	@ movhi
	blx	r2
	mov	r5, r0
.L127:
	tst	r8, #64
	and	r6, r6, #64
	bne	.L151
.L128:
	cmp	r6, #0
	beq	.L125
	ldr	r2, [r4, #128]
	cmp	r2, #0
	beq	.L125
	ldrh	r3, [r4, #104]
	mov	r0, r4
	mov	r1, #0
	bic	r3, r3, #64
	strh	r3, [r4, #104]	@ movhi
	blx	r2
	mov	r5, r0
.L125:
	mov	r0, r7
	bl	_raw_spin_unlock_irq
	ldrd	r6, [sp, #8]
	mov	r0, r5
	ldrd	r4, [sp]
	ldrd	r8, [sp, #16]
	ldr	r10, [sp, #24]
	add	sp, sp, #28
	ldr	pc, [sp], #4
.L151:
	ldr	r2, [r4, #128]
	cmp	r2, #0
	beq	.L125
	ldrh	r3, [r4, #104]
	mov	r1, #1
	mov	r0, r4
	orr	r3, r3, #64
	strh	r3, [r4, #104]	@ movhi
	blx	r2
	mov	r5, r0
	b	.L128
.L129:
	mvn	r5, #18
	b	.L125
	.fnend
	.size	gs_tiocmset, .-gs_tiocmset
	.align	2
	.syntax unified
	.arm
	.fpu softvfp
	.type	debug_write_reset, %function
debug_write_reset:
	.fnstart
	@ args = 0, pretend = 0, frame = 0
	@ frame_needed = 0, uses_anonymous_args = 0
	strd	r4, [sp, #-16]!
	.save {r4, r5, r6, lr}
	mov	r5, r2
	str	r6, [sp, #8]
	str	lr, [sp, #12]
	ldr	r4, [r0, #124]
	mov	r0, r4
	bl	_raw_spin_lock_irqsave
	mov	r3, #0
	mov	r1, r0
	mov	r0, r4
	str	r3, [r4, #128]
	str	r3, [r4, #132]
	str	r3, [r4, #136]
	str	r3, [r4, #140]
	bl	_raw_spin_unlock_irqrestore
	ldr	r6, [sp, #8]
	mov	r0, r5
	ldrd	r4, [sp]
	add	sp, sp, #12
	ldr	pc, [sp], #4
	.fnend
	.size	debug_write_reset, .-debug_write_reset
	.align	2
	.syntax unified
	.arm
	.fpu softvfp
	.type	debug_sdio_reset_stats, %function
debug_sdio_reset_stats:
	.fnstart
	@ args = 0, pretend = 0, frame = 0
	@ frame_needed = 0, uses_anonymous_args = 0
	strd	r4, [sp, #-32]!
	.save {r4, r5, r6, r7, r8, r9, r10, lr}
	strd	r6, [sp, #8]
	movw	r7, #:lower16:.LANCHOR1
	movt	r7, #:upper16:.LANCHOR1
	strd	r8, [sp, #16]
	ldr	r3, [r7]
	str	r10, [sp, #24]
	mov	r10, r2
	str	lr, [sp, #28]
	cmp	r3, #0
	beq	.L155
	mov	r5, #0
	add	r6, r7, #4
	mov	r9, r5
.L156:
	ldr	r4, [r6, #20]
	add	r5, r5, #1
	add	r6, r6, #104
	add	r8, r4, #4
	mov	r0, r8
	bl	_raw_spin_lock_irqsave
	mov	r1, r0
	str	r9, [r4, #184]
	mov	r0, r8
	str	r9, [r4, #188]
	bl	_raw_spin_unlock_irqrestore
	ldr	r3, [r7]
	cmp	r5, r3
	bcc	.L156
.L155:
	mov	r0, r10
	ldrd	r4, [sp]
	ldrd	r6, [sp, #8]
	ldrd	r8, [sp, #16]
	ldr	r10, [sp, #24]
	add	sp, sp, #28
	ldr	pc, [sp], #4
	.fnend
	.size	debug_sdio_reset_stats, .-debug_sdio_reset_stats
	.align	2
	.syntax unified
	.arm
	.fpu softvfp
	.type	debug_smd_reset_stats, %function
debug_smd_reset_stats:
	.fnstart
	@ args = 0, pretend = 0, frame = 0
	@ frame_needed = 0, uses_anonymous_args = 0
	strd	r4, [sp, #-32]!
	.save {r4, r5, r6, r7, r8, r9, r10, lr}
	strd	r6, [sp, #8]
	movw	r7, #:lower16:.LANCHOR1
	movt	r7, #:upper16:.LANCHOR1
	strd	r8, [sp, #16]
	ldr	r3, [r7, #212]
	str	r10, [sp, #24]
	mov	r10, r2
	str	lr, [sp, #28]
	cmp	r3, #0
	beq	.L163
	mov	r5, #0
	add	r6, r7, #216
	mov	r9, r5
.L164:
	ldr	r4, [r6, #20]
	add	r5, r5, #1
	add	r6, r6, #104
	add	r8, r4, #4
	mov	r0, r8
	bl	_raw_spin_lock_irqsave
	mov	r1, r0
	str	r9, [r4, #168]
	mov	r0, r8
	str	r9, [r4, #172]
	bl	_raw_spin_unlock_irqrestore
	ldr	r3, [r7, #212]
	cmp	r5, r3
	bcc	.L164
.L163:
	mov	r0, r10
	ldrd	r4, [sp]
	ldrd	r6, [sp, #8]
	ldrd	r8, [sp, #16]
	ldr	r10, [sp, #24]
	add	sp, sp, #28
	ldr	pc, [sp], #4
	.fnend
	.size	debug_smd_reset_stats, .-debug_smd_reset_stats
	.align	2
	.syntax unified
	.arm
	.fpu softvfp
	.type	gbam_wake_cb, %function
gbam_wake_cb:
	.fnstart
	@ args = 0, pretend = 0, frame = 0
	@ frame_needed = 0, uses_anonymous_args = 0
	@ link register save eliminated.
	ldr	r3, [r0, #16]
	ldr	r3, [r3, #128]
	ldr	r0, [r3]
	ldr	r3, [r0]
	ldr	r3, [r3, #4]
	cmp	r3, #0
	beq	.L171
	bx	r3
.L171:
	mvn	r0, #94
	bx	lr
	.fnend
	.size	gbam_wake_cb, .-gbam_wake_cb
	.align	2
	.syntax unified
	.arm
	.fpu softvfp
	.type	gbam_reset_stats, %function
gbam_reset_stats:
	.fnstart
	@ args = 0, pretend = 0, frame = 0
	@ frame_needed = 0, uses_anonymous_args = 0
	movw	r3, #:lower16:.LANCHOR1
	strd	r4, [sp, #-24]!
	.save {r4, r5, r6, r7, r8, lr}
	movt	r3, #:upper16:.LANCHOR1
	strd	r6, [sp, #8]
	mov	r7, r2
	str	r8, [sp, #16]
	str	lr, [sp, #20]
	ldr	r2, [r3, #424]
	cmp	r2, #0
	ble	.L173
	ldr	r4, [r3, #428]
	cmp	r4, #0
	beq	.L173
	add	r5, r4, #4
	add	r6, r4, #8
	mov	r0, r5
	bl	_raw_spin_lock_irqsave
	mov	r8, r0
	mov	r0, r6
	bl	_raw_spin_lock
	mov	r3, #0
	mov	r0, r6
	str	r3, [r4, #240]
	str	r3, [r4, #244]
	str	r3, [r4, #248]
	str	r3, [r4, #260]
	str	r3, [r4, #264]
	str	r3, [r4, #268]
	str	r3, [r4, #272]
	str	r3, [r4, #276]
	str	r3, [r4, #280]
	bl	_raw_spin_unlock
	mov	r1, r8
	mov	r0, r5
	bl	_raw_spin_unlock_irqrestore
.L173:
	mov	r0, r7
	ldrd	r4, [sp]
	ldrd	r6, [sp, #8]
	ldr	r8, [sp, #16]
	add	sp, sp, #20
	ldr	pc, [sp], #4
	.fnend
	.size	gbam_reset_stats, .-gbam_reset_stats
	.align	2
	.syntax unified
	.arm
	.fpu softvfp
	.type	gsmd_ctrl_reset_stats, %function
gsmd_ctrl_reset_stats:
	.fnstart
	@ args = 0, pretend = 0, frame = 0
	@ frame_needed = 0, uses_anonymous_args = 0
	strd	r4, [sp, #-32]!
	.save {r4, r5, r6, r7, r8, r9, r10, lr}
	ldr	r5, .L187
	strd	r6, [sp, #8]
	mov	r7, #0
	strd	r8, [sp, #16]
	mov	r9, r2
	str	r10, [sp, #24]
	add	r8, r5, #504
	str	lr, [sp, #28]
.L181:
	ldr	r4, [r5]
	add	r5, r5, #84
	cmp	r4, #0
	add	r6, r4, #108
	mov	r0, r6
	beq	.L180
	bl	_raw_spin_lock_irqsave
	mov	r1, r0
	str	r7, [r4, #92]
	mov	r0, r6
	str	r7, [r4, #96]
	bl	_raw_spin_unlock_irqrestore
.L180:
	cmp	r5, r8
	bne	.L181
	mov	r0, r9
	ldrd	r4, [sp]
	ldrd	r6, [sp, #8]
	ldrd	r8, [sp, #16]
	ldr	r10, [sp, #24]
	add	sp, sp, #28
	ldr	pc, [sp], #4
.L188:
	.align	2
.L187:
	.word	.LANCHOR1+512
	.fnend
	.size	gsmd_ctrl_reset_stats, .-gsmd_ctrl_reset_stats
	.align	2
	.syntax unified
	.arm
	.fpu softvfp
	.type	rmnet_ctrl_open, %function
rmnet_ctrl_open:
	.fnstart
	@ args = 0, pretend = 0, frame = 0
	@ frame_needed = 0, uses_anonymous_args = 0
	strd	r4, [sp, #-16]!
	.save {r4, r5, r6, lr}
	movw	r4, #:lower16:.LANCHOR1
	movt	r4, #:upper16:.LANCHOR1
	str	r6, [sp, #8]
	ldr	r3, [r4, #1016]
	str	lr, [sp, #12]
	add	r2, r3, #16
	.syntax divided
@ 61 "/home/Jprimero15/hlte/lolz/arch/arm/include/asm/atomic.h" 1
	dmb
@ 0 "" 2
@ 63 "/home/Jprimero15/hlte/lolz/arch/arm/include/asm/atomic.h" 1
	@ atomic_add_return
1:	ldrex	r5, [r2]
	add	r5, r5, #1
	strex	r0, r5, [r2]
	teq	r0, #0
	bne	1b
@ 0 "" 2
@ 73 "/home/Jprimero15/hlte/lolz/arch/arm/include/asm/atomic.h" 1
	dmb
@ 0 "" 2
	.arm
	.syntax unified
	cmp	r5, #1
	bne	.L190
	ldr	r0, [r4, #1016]
	str	r0, [r1, #124]
	add	r0, r0, #52
	bl	_raw_spin_lock_irqsave
	ldr	r3, [r4, #1016]
	mov	r1, r0
	strb	r5, [r3, #4]
	add	r0, r3, #52
	bl	_raw_spin_unlock_irqrestore
	mov	r0, #0
.L189:
	ldrd	r4, [sp]
	ldr	r6, [sp, #8]
	add	sp, sp, #12
	ldr	pc, [sp], #4
.L190:
	.syntax divided
@ 83 "/home/Jprimero15/hlte/lolz/arch/arm/include/asm/atomic.h" 1
	@ atomic_sub
1:	ldrex	r1, [r2]
	sub	r1, r1, #1
	strex	r0, r1, [r2]
	teq	r0, #0
	bne	1b
@ 0 "" 2
	.arm
	.syntax unified
	mvn	r0, #15
	b	.L189
	.fnend
	.size	rmnet_ctrl_open, .-rmnet_ctrl_open
	.align	2
	.syntax unified
	.arm
	.fpu softvfp
	.type	rmnet_ctrl_release, %function
rmnet_ctrl_release:
	.fnstart
	@ args = 0, pretend = 0, frame = 0
	@ frame_needed = 0, uses_anonymous_args = 0
	strd	r4, [sp, #-16]!
	.save {r4, r5, r6, lr}
	mov	r5, #0
	str	r6, [sp, #8]
	str	lr, [sp, #12]
	ldr	r4, [r1, #124]
	add	r6, r4, #52
	mov	r0, r6
	bl	_raw_spin_lock_irqsave
	mov	r1, r0
	strb	r5, [r4, #4]
	mov	r0, r6
	bl	_raw_spin_unlock_irqrestore
	add	r3, r4, #16
	.syntax divided
@ 83 "/home/Jprimero15/hlte/lolz/arch/arm/include/asm/atomic.h" 1
	@ atomic_sub
1:	ldrex	r2, [r3]
	sub	r2, r2, #1
	strex	r1, r2, [r3]
	teq	r1, #0
	bne	1b
@ 0 "" 2
	.arm
	.syntax unified
	mov	r0, r5
	ldrd	r4, [sp]
	ldr	r6, [sp, #8]
	add	sp, sp, #12
	ldr	pc, [sp], #4
	.fnend
	.size	rmnet_ctrl_release, .-rmnet_ctrl_release
	.align	2
	.syntax unified
	.arm
	.fpu softvfp
	.type	ghsic_ctrl_receive, %function
ghsic_ctrl_receive:
	.fnstart
	@ args = 0, pretend = 0, frame = 0
	@ frame_needed = 0, uses_anonymous_args = 0
	.save {r4, lr}
	str	r4, [sp, #-8]!
	subs	r4, r0, #0
	str	lr, [sp, #4]
	moveq	r0, r4
	beq	.L195
	ldr	r3, [r4, #52]
	cmp	r3, #0
	beq	.L198
	ldr	r0, [r4, #8]
	blx	r3
	ldr	r3, [r4, #100]
	add	r3, r3, #1
	str	r3, [r4, #100]
.L195:
	ldr	r4, [sp]
	add	sp, sp, #4
	ldr	pc, [sp], #4
.L198:
	mov	r0, r3
	b	.L195
	.fnend
	.size	ghsic_ctrl_receive, .-ghsic_ctrl_receive
	.align	2
	.syntax unified
	.arm
	.fpu softvfp
	.type	ghsic_ctrl_status, %function
ghsic_ctrl_status:
	.fnstart
	@ args = 0, pretend = 0, frame = 0
	@ frame_needed = 0, uses_anonymous_args = 0
	@ link register save eliminated.
	ldr	r3, [r0, #8]
	str	r1, [r0, #92]
	cmp	r3, #0
	beq	.L200
	ldr	r2, [r3, #136]
	cmp	r2, #0
	beq	.L200
	mov	r0, r3
	bx	r2
.L200:
	bx	lr
	.fnend
	.size	ghsic_ctrl_status, .-ghsic_ctrl_status
	.align	2
	.syntax unified
	.arm
	.fpu softvfp
	.type	gctrl_reset_stats, %function
gctrl_reset_stats:
	.fnstart
	@ args = 0, pretend = 0, frame = 0
	@ frame_needed = 0, uses_anonymous_args = 0
	strd	r4, [sp, #-32]!
	.save {r4, r5, r6, r7, r8, r9, r10, lr}
	strd	r6, [sp, #8]
	strd	r8, [sp, #16]
	movw	r9, #:lower16:.LANCHOR1
	movt	r9, #:upper16:.LANCHOR1
	str	r10, [sp, #24]
	mov	r10, r2
	ldr	r3, [r9, #1020]
	str	lr, [sp, #28]
	cmp	r3, #0
	beq	.L209
	mov	r5, #0
	add	r6, r9, #1024
	mov	r8, r5
.L211:
	ldr	r4, [r6]
	add	r5, r5, #1
	add	r6, r6, #104
	cmp	r4, #0
	add	r7, r4, #4
	mov	r0, r7
	beq	.L210
	bl	_raw_spin_lock_irqsave
	mov	r1, r0
	str	r8, [r4, #96]
	mov	r0, r7
	str	r8, [r4, #100]
	str	r8, [r4, #104]
	bl	_raw_spin_unlock_irqrestore
.L210:
	ldr	r3, [r9, #1020]
	cmp	r5, r3
	bcc	.L211
.L209:
	mov	r0, r10
	ldrd	r4, [sp]
	ldrd	r6, [sp, #8]
	ldrd	r8, [sp, #16]
	ldr	r10, [sp, #24]
	add	sp, sp, #28
	ldr	pc, [sp], #4
	.fnend
	.size	gctrl_reset_stats, .-gctrl_reset_stats
	.align	2
	.syntax unified
	.arm
	.fpu softvfp
	.type	ghsic_data_reset_stats, %function
ghsic_data_reset_stats:
	.fnstart
	@ args = 0, pretend = 0, frame = 0
	@ frame_needed = 0, uses_anonymous_args = 0
	strd	r4, [sp, #-36]!
	.save {r4, r5, r6, r7, r8, r9, r10, fp, lr}
	strd	r6, [sp, #8]
	strd	r10, [sp, #24]
	movw	r10, #:lower16:.LANCHOR1
	mov	fp, r2
	movt	r10, #:upper16:.LANCHOR1
	strd	r8, [sp, #16]
	ldr	r3, [r10, #1440]
	str	lr, [sp, #32]
	.pad #4
	sub	sp, sp, #4
	cmp	r3, #0
	beq	.L221
	ldr	r7, .L232
	mov	r6, #0
	mov	r5, r6
.L223:
	ldr	r4, [r7]
	add	r6, r6, #1
	add	r7, r7, #104
	cmp	r4, #0
	add	r8, r4, #80
	add	r9, r4, #48
	mov	r0, r8
	beq	.L222
	bl	_raw_spin_lock_irqsave
	mov	r1, r0
	str	r5, [r4, #188]
	mov	r0, r8
	str	r5, [r4, #204]
	str	r5, [r4, #208]
	str	r5, [r4, #212]
	bl	_raw_spin_unlock_irqrestore
	mov	r0, r9
	bl	_raw_spin_lock_irqsave
	mov	r1, r0
	str	r5, [r4, #192]
	mov	r0, r9
	str	r5, [r4, #196]
	str	r5, [r4, #200]
	str	r5, [r4, #216]
	bl	_raw_spin_unlock_irqrestore
.L222:
	ldr	r3, [r10, #1440]
	cmp	r6, r3
	bcc	.L223
.L221:
	mov	r0, fp
	add	sp, sp, #4
	@ sp needed
	ldrd	r4, [sp]
	ldrd	r6, [sp, #8]
	ldrd	r8, [sp, #16]
	ldrd	r10, [sp, #24]
	add	sp, sp, #32
	ldr	pc, [sp], #4
.L233:
	.align	2
.L232:
	.word	.LANCHOR1+1444
	.fnend
	.size	ghsic_data_reset_stats, .-ghsic_data_reset_stats
	.align	2
	.syntax unified
	.arm
	.fpu softvfp
	.type	ghsuart_ctrl_reset_stats, %function
ghsuart_ctrl_reset_stats:
	.fnstart
	@ args = 0, pretend = 0, frame = 0
	@ frame_needed = 0, uses_anonymous_args = 0
	strd	r4, [sp, #-32]!
	.save {r4, r5, r6, r7, r8, r9, r10, lr}
	strd	r6, [sp, #8]
	movw	r7, #:lower16:.LANCHOR1
	movt	r7, #:upper16:.LANCHOR1
	strd	r8, [sp, #16]
	ldr	r3, [r7, #1860]
	str	r10, [sp, #24]
	mov	r10, r2
	str	lr, [sp, #28]
	cmp	r3, #0
	beq	.L235
	ldr	r6, .L246
	mov	r5, #0
	mov	r9, r5
.L237:
	ldr	r4, [r6]
	add	r5, r5, #1
	add	r6, r6, #84
	cmp	r4, #0
	add	r8, r4, #8
	mov	r0, r8
	beq	.L236
	bl	_raw_spin_lock_irqsave
	mov	r1, r0
	str	r9, [r4, #96]
	mov	r0, r8
	str	r9, [r4, #100]
	str	r9, [r4, #104]
	bl	_raw_spin_unlock_irqrestore
.L236:
	ldr	r3, [r7, #1860]
	cmp	r5, r3
	bcc	.L237
.L235:
	mov	r0, r10
	ldrd	r4, [sp]
	ldrd	r6, [sp, #8]
	ldrd	r8, [sp, #16]
	ldr	r10, [sp, #24]
	add	sp, sp, #28
	ldr	pc, [sp], #4
.L247:
	.align	2
.L246:
	.word	.LANCHOR1+1864
	.fnend
	.size	ghsuart_ctrl_reset_stats, .-ghsuart_ctrl_reset_stats
	.align	2
	.syntax unified
	.arm
	.fpu softvfp
	.type	ghsuart_data_reset_stats, %function
ghsuart_data_reset_stats:
	.fnstart
	@ args = 0, pretend = 0, frame = 0
	@ frame_needed = 0, uses_anonymous_args = 0
	strd	r4, [sp, #-36]!
	.save {r4, r5, r6, r7, r8, r9, r10, fp, lr}
	strd	r6, [sp, #8]
	movw	r7, #:lower16:.LANCHOR1
	movt	r7, #:upper16:.LANCHOR1
	strd	r8, [sp, #16]
	ldr	r3, [r7, #2032]
	strd	r10, [sp, #24]
	mov	fp, r2
	str	lr, [sp, #32]
	.pad #4
	sub	sp, sp, #4
	cmp	r3, #0
	beq	.L249
	ldr	r6, .L260
	mov	r5, #0
	mov	r9, r5
.L251:
	ldr	r4, [r6]
	add	r5, r5, #1
	add	r6, r6, #84
	cmp	r4, #0
	add	r8, r4, #104
	add	r10, r4, #72
	mov	r0, r8
	beq	.L250
	bl	_raw_spin_lock_irqsave
	mov	r1, r0
	str	r9, [r4, #204]
	mov	r0, r8
	str	r9, [r4, #212]
	bl	_raw_spin_unlock_irqrestore
	mov	r0, r10
	bl	_raw_spin_lock_irqsave
	mov	r1, r0
	str	r9, [r4, #208]
	mov	r0, r10
	bl	_raw_spin_unlock_irqrestore
.L250:
	ldr	r3, [r7, #2032]
	cmp	r5, r3
	bcc	.L251
.L249:
	mov	r0, fp
	add	sp, sp, #4
	@ sp needed
	ldrd	r4, [sp]
	ldrd	r6, [sp, #8]
	ldrd	r8, [sp, #16]
	ldrd	r10, [sp, #24]
	add	sp, sp, #32
	ldr	pc, [sp], #4
.L261:
	.align	2
.L260:
	.word	.LANCHOR1+2036
	.fnend
	.size	ghsuart_data_reset_stats, .-ghsuart_data_reset_stats
	.align	2
	.syntax unified
	.arm
	.fpu softvfp
	.type	modem_open, %function
modem_open:
	.fnstart
	@ args = 0, pretend = 0, frame = 0
	@ frame_needed = 0, uses_anonymous_args = 0
	@ link register save eliminated.
	movw	r3, #:lower16:.LANCHOR1
	mov	r2, #0
	movt	r3, #:upper16:.LANCHOR1
	mov	r0, r2
	str	r2, [r3, #2204]
	bx	lr
	.fnend
	.size	modem_open, .-modem_open
	.align	2
	.syntax unified
	.arm
	.fpu softvfp
	.type	modem_poll, %function
modem_poll:
	.fnstart
	@ args = 0, pretend = 0, frame = 0
	@ frame_needed = 0, uses_anonymous_args = 0
	subs	r2, r1, #0
	.save {r4, lr}
	str	r4, [sp, #-8]!
	str	lr, [sp, #4]
	beq	.L264
	ldr	r3, [r2]
	cmp	r3, #0
	beq	.L264
	ldr	r1, .L275
	blx	r3
.L264:
	movw	r3, #:lower16:.LANCHOR1
	ldr	r4, [sp]
	add	sp, sp, #4
	movt	r3, #:upper16:.LANCHOR1
	ldr	r0, [r3, #2204]
	cmp	r0, #0
	movne	r0, #65
	ldr	pc, [sp], #4
.L276:
	.align	2
.L275:
	.word	.LANCHOR1+2208
	.fnend
	.size	modem_poll, .-modem_poll
	.align	2
	.syntax unified
	.arm
	.fpu softvfp
	.type	ccid_bulk_open, %function
ccid_bulk_open:
	.fnstart
	@ args = 0, pretend = 0, frame = 0
	@ frame_needed = 0, uses_anonymous_args = 0
	movw	r3, #:lower16:.LANCHOR1
	strd	r4, [sp, #-24]!
	.save {r4, r5, r6, r7, r8, lr}
	movt	r3, #:upper16:.LANCHOR1
	strd	r6, [sp, #8]
	str	r8, [sp, #16]
	str	lr, [sp, #20]
	ldr	r4, [r3, #2220]
	ldr	r3, [r4, #96]
	cmp	r3, #0
	beq	.L279
	ldr	r5, [r4, #152]
	cmp	r5, #0
	bne	.L280
	mov	r3, #1
	add	r7, r4, #92
	str	r5, [r4, #148]
	mov	r6, r1
	mov	r0, r7
	str	r3, [r4, #152]
	bl	_raw_spin_lock_irqsave
	mov	r1, r0
	str	r4, [r6, #124]
	mov	r0, r7
	bl	_raw_spin_unlock_irqrestore
	mov	r0, r5
.L277:
	ldrd	r4, [sp]
	ldrd	r6, [sp, #8]
	ldr	r8, [sp, #16]
	add	sp, sp, #20
	ldr	pc, [sp], #4
.L280:
	mvn	r0, #15
	b	.L277
.L279:
	mvn	r0, #18
	b	.L277
	.fnend
	.size	ccid_bulk_open, .-ccid_bulk_open
	.align	2
	.syntax unified
	.arm
	.fpu softvfp
	.type	ccid_bulk_release, %function
ccid_bulk_release:
	.fnstart
	@ args = 0, pretend = 0, frame = 0
	@ frame_needed = 0, uses_anonymous_args = 0
	@ link register save eliminated.
	ldr	r2, [r1, #124]
	mov	r3, #0
	mov	r0, r3
	str	r3, [r2, #152]
	bx	lr
	.fnend
	.size	ccid_bulk_release, .-ccid_bulk_release
	.align	2
	.syntax unified
	.arm
	.fpu softvfp
	.type	ccid_ctrl_open, %function
ccid_ctrl_open:
	.fnstart
	@ args = 0, pretend = 0, frame = 0
	@ frame_needed = 0, uses_anonymous_args = 0
	movw	r3, #:lower16:.LANCHOR1
	strd	r4, [sp, #-24]!
	.save {r4, r5, r6, r7, r8, lr}
	movt	r3, #:upper16:.LANCHOR1
	strd	r6, [sp, #8]
	str	r8, [sp, #16]
	str	lr, [sp, #20]
	ldr	r4, [r3, #2220]
	ldr	r3, [r4, #96]
	cmp	r3, #0
	beq	.L285
	ldr	r5, [r4, #116]
	cmp	r5, #0
	bne	.L286
	mov	r3, #1
	add	r7, r4, #92
	mov	r6, r1
	mov	r0, r7
	str	r3, [r4, #116]
	bl	_raw_spin_lock_irqsave
	mov	r1, r0
	str	r4, [r6, #124]
	mov	r0, r7
	bl	_raw_spin_unlock_irqrestore
	mov	r0, r5
.L283:
	ldrd	r4, [sp]
	ldrd	r6, [sp, #8]
	ldr	r8, [sp, #16]
	add	sp, sp, #20
	ldr	pc, [sp], #4
.L286:
	mvn	r0, #15
	b	.L283
.L285:
	mvn	r0, #18
	b	.L283
	.fnend
	.size	ccid_ctrl_open, .-ccid_ctrl_open
	.align	2
	.syntax unified
	.arm
	.fpu softvfp
	.type	ccid_ctrl_release, %function
ccid_ctrl_release:
	.fnstart
	@ args = 0, pretend = 0, frame = 0
	@ frame_needed = 0, uses_anonymous_args = 0
	@ link register save eliminated.
	ldr	r2, [r1, #124]
	mov	r3, #0
	mov	r0, r3
	str	r3, [r2, #116]
	bx	lr
	.fnend
	.size	ccid_ctrl_release, .-ccid_ctrl_release
	.align	2
	.syntax unified
	.arm
	.fpu softvfp
	.type	f_midi_disable, %function
f_midi_disable:
	.fnstart
	@ args = 0, pretend = 0, frame = 0
	@ frame_needed = 0, uses_anonymous_args = 0
	.save {r4, lr}
	str	r4, [sp, #-8]!
	mov	r4, r0
	str	lr, [sp, #4]
	ldr	r0, [r0, #88]
	ldr	r3, [r0, #8]
	ldr	r3, [r3, #4]
	blx	r3
	ldr	r0, [r4, #92]
	ldr	r4, [sp]
	ldr	lr, [sp, #4]
	add	sp, sp, #8
	ldr	r3, [r0, #8]
	ldr	r3, [r3, #4]
	bx	r3
	.fnend
	.size	f_midi_disable, .-f_midi_disable
	.align	2
	.syntax unified
	.arm
	.fpu softvfp
	.type	f_midi_snd_free, %function
f_midi_snd_free:
	.fnstart
	@ args = 0, pretend = 0, frame = 0
	@ frame_needed = 0, uses_anonymous_args = 0
	@ link register save eliminated.
	mov	r0, #0
	bx	lr
	.fnend
	.size	f_midi_snd_free, .-f_midi_snd_free
	.align	2
	.syntax unified
	.arm
	.fpu softvfp
	.type	f_midi_in_open, %function
f_midi_in_open:
	.fnstart
	@ args = 0, pretend = 0, frame = 0
	@ frame_needed = 0, uses_anonymous_args = 0
	@ link register save eliminated.
	ldr	r3, [r0, #12]
	ldr	r2, [r0, #28]
	ldr	r2, [r2, #200]
	add	r3, r2, r3, lsl #2
	ldr	r1, [r3, #232]
	cmp	r1, #0
	beq	.L294
	str	r0, [r3, #104]
	ldr	r3, [r0, #12]
	mov	r1, #0
	mov	r0, r1
	add	r3, r3, #58
	ldr	r3, [r2, r3, lsl #2]
	strb	r1, [r3, #9]
	bx	lr
.L294:
	mvn	r0, #21
	bx	lr
	.fnend
	.size	f_midi_in_open, .-f_midi_in_open
	.align	2
	.syntax unified
	.arm
	.fpu softvfp
	.type	f_midi_out_open, %function
f_midi_out_open:
	.fnstart
	@ args = 0, pretend = 0, frame = 0
	@ frame_needed = 0, uses_anonymous_args = 0
	@ link register save eliminated.
	ldr	r3, [r0, #12]
	mov	r2, r0
	ldr	r1, [r0, #28]
	cmp	r3, #15
	ldr	r1, [r1, #200]
	addle	r3, r3, #42
	movle	r0, #0
	mvngt	r0, #21
	strle	r2, [r1, r3, lsl #2]
	bx	lr
	.fnend
	.size	f_midi_out_open, .-f_midi_out_open
	.align	2
	.syntax unified
	.arm
	.fpu softvfp
	.type	rndis_response_available, %function
rndis_response_available:
	.fnstart
	@ args = 0, pretend = 0, frame = 0
	@ frame_needed = 0, uses_anonymous_args = 0
	strd	r4, [sp, #-16]!
	.save {r4, r5, r6, lr}
	add	r5, r0, #176
	str	r6, [sp, #8]
	str	lr, [sp, #12]
	ldr	r1, [r0, #172]
	ldr	ip, [r1]
	.syntax divided
@ 61 "/home/Jprimero15/hlte/lolz/arch/arm/include/asm/atomic.h" 1
	dmb
@ 0 "" 2
@ 63 "/home/Jprimero15/hlte/lolz/arch/arm/include/asm/atomic.h" 1
	@ atomic_add_return
1:	ldrex	r3, [r5]
	add	r3, r3, #1
	strex	r2, r3, [r5]
	teq	r2, #0
	bne	1b
@ 0 "" 2
@ 73 "/home/Jprimero15/hlte/lolz/arch/arm/include/asm/atomic.h" 1
	dmb
@ 0 "" 2
	.arm
	.syntax unified
	cmp	r3, #1
	beq	.L309
.L298:
	ldrd	r4, [sp]
	ldr	r6, [sp, #8]
	add	sp, sp, #12
	ldr	pc, [sp], #4
.L309:
	ldr	r2, [r0, #168]
	ldr	r2, [r2]
	cmp	r2, #0
	beq	.L298
	mov	r4, r0
	mov	r0, #0
	str	r3, [ip]
	mov	r2, #32
	str	r0, [ip, #4]
	ldr	r0, [r4, #168]
	ldr	r3, [r0, #8]
	ldr	r3, [r3, #16]
	blx	r3
	cmp	r0, #0
	beq	.L298
	.syntax divided
@ 83 "/home/Jprimero15/hlte/lolz/arch/arm/include/asm/atomic.h" 1
	@ atomic_sub
1:	ldrex	r3, [r5]
	sub	r3, r3, #1
	strex	r2, r3, [r5]
	teq	r2, #0
	bne	1b
@ 0 "" 2
	.arm
	.syntax unified
	b	.L298
	.fnend
	.size	rndis_response_available, .-rndis_response_available
	.align	2
	.syntax unified
	.arm
	.fpu softvfp
	.type	rndis_response_complete, %function
rndis_response_complete:
	.fnstart
	@ args = 0, pretend = 0, frame = 0
	@ frame_needed = 0, uses_anonymous_args = 0
	strd	r4, [sp, #-16]!
	.save {r4, r5, r6, lr}
	ldr	r4, [r1, #32]
	str	r6, [sp, #8]
	str	lr, [sp, #12]
	ldr	r3, [r4, #20]
	cmp	r3, #0
	beq	.L310
	ldr	r3, [r3, #24]
	cmp	r3, #0
	beq	.L310
	ldr	r3, [r1, #44]
	cmn	r3, #108
	beq	.L315
	cmn	r3, #104
	beq	.L315
	ldr	r3, [r4, #168]
	cmp	r3, r0
	beq	.L333
.L310:
	ldrd	r4, [sp]
	ldr	r6, [sp, #8]
	add	sp, sp, #12
	ldr	pc, [sp], #4
.L315:
	mov	r3, #0
	str	r3, [r4, #176]
	b	.L310
.L333:
	add	r5, r4, #176
	.syntax divided
@ 99 "/home/Jprimero15/hlte/lolz/arch/arm/include/asm/atomic.h" 1
	dmb
@ 0 "" 2
@ 101 "/home/Jprimero15/hlte/lolz/arch/arm/include/asm/atomic.h" 1
	@ atomic_sub_return
1:	ldrex	r3, [r5]
	sub	r3, r3, #1
	strex	r2, r3, [r5]
	teq	r2, #0
	bne	1b
@ 0 "" 2
@ 111 "/home/Jprimero15/hlte/lolz/arch/arm/include/asm/atomic.h" 1
	dmb
@ 0 "" 2
	.arm
	.syntax unified
	cmp	r3, #0
	beq	.L310
	ldr	r0, [r4, #168]
	mov	r2, #32
	ldr	r3, [r0, #8]
	ldr	r3, [r3, #16]
	blx	r3
	cmp	r0, #0
	beq	.L310
	.syntax divided
@ 83 "/home/Jprimero15/hlte/lolz/arch/arm/include/asm/atomic.h" 1
	@ atomic_sub
1:	ldrex	r3, [r5]
	sub	r3, r3, #1
	strex	r2, r3, [r5]
	teq	r2, #0
	bne	1b
@ 0 "" 2
	.arm
	.syntax unified
	b	.L310
	.fnend
	.size	rndis_response_complete, .-rndis_response_complete
	.align	2
	.syntax unified
	.arm
	.fpu softvfp
	.type	ecm_qc_do_notify, %function
ecm_qc_do_notify:
	.fnstart
	@ args = 0, pretend = 0, frame = 0
	@ frame_needed = 0, uses_anonymous_args = 0
	strd	r4, [sp, #-16]!
	.save {r4, r5, r6, lr}
	str	r6, [sp, #8]
	str	lr, [sp, #12]
	ldr	r5, [r0, #148]
	cmp	r5, #0
	beq	.L334
	ldrb	r2, [r0, #152]	@ zero_extendqisi2
	ldr	r3, [r5]
	cmp	r2, #1
	beq	.L338
	bcc	.L334
	cmp	r2, #2
	bne	.L337
	ldr	ip, [r0, #20]
	mov	r2, #0
	mov	r1, #8
	mov	r4, #42
	mov	lr, #16
	ldr	ip, [ip, #24]
	strb	r4, [r3, #1]
	strb	r2, [r3, #2]
	strb	r2, [r3, #3]
	strb	r1, [r3, #6]
	strb	r2, [r3, #7]
	ldr	r1, [r5]
	str	lr, [r5, #4]
	ldr	r2, [ip]
	ldr	ip, [r2, #20]
	cmp	ip, #2
	movls	r2, #28672
	movtls	r2, 148
	bls	.L342
	ldr	lr, [r2, #16]
	mov	ip, #0
	mov	r2, #28672
	movt	ip, 6500
	movt	r2, 148
	cmp	lr, #3
	moveq	r2, ip
.L342:
	mov	ip, #0
	str	r2, [r1, #8]
	str	r2, [r1, #12]
	strb	ip, [r0, #152]
.L337:
	mov	r4, r0
	mvn	r0, #94
	mov	ip, #0
	mov	r2, #32
	strb	r0, [r3]
	ldrb	r0, [r4, #120]	@ zero_extendqisi2
	mov	r1, r5
	strh	r0, [r3, #4]	@ unaligned
	ldr	r0, [r4, #144]
	str	ip, [r4, #148]
	ldr	r3, [r0, #8]
	ldr	r3, [r3, #16]
	blx	r3
	cmp	r0, #0
	strlt	r5, [r4, #148]
.L334:
	ldrd	r4, [sp]
	ldr	r6, [sp, #8]
	add	sp, sp, #12
	ldr	pc, [sp], #4
.L338:
	mov	ip, #0
	strb	ip, [r3, #1]
	ldrb	r1, [r0, #153]	@ zero_extendqisi2
	cmp	r1, ip
	strbne	r2, [r3, #2]
	mov	r2, #0
	strbne	ip, [r3, #3]
	mov	ip, #8
	strbeq	r1, [r3, #2]
	strbeq	r1, [r3, #3]
	mov	r1, #2
	strb	r2, [r3, #6]
	strb	r2, [r3, #7]
	str	ip, [r5, #4]
	strb	r1, [r0, #152]
	b	.L337
	.fnend
	.size	ecm_qc_do_notify, .-ecm_qc_do_notify
	.align	2
	.syntax unified
	.arm
	.fpu softvfp
	.type	ecm_qc_notify_complete, %function
ecm_qc_notify_complete:
	.fnstart
	@ args = 0, pretend = 0, frame = 0
	@ frame_needed = 0, uses_anonymous_args = 0
	@ link register save eliminated.
	ldr	r0, [r1, #32]
	ldr	r3, [r1, #44]
	cmn	r3, #108
	beq	.L349
	cmn	r3, #104
	beq	.L349
	str	r1, [r0, #148]
	b	ecm_qc_do_notify
.L349:
	mov	r3, #0
	str	r1, [r0, #148]
	strb	r3, [r0, #152]
	b	ecm_qc_do_notify
	.fnend
	.size	ecm_qc_notify_complete, .-ecm_qc_notify_complete
	.align	2
	.syntax unified
	.arm
	.fpu softvfp
	.type	ecm_qc_get_alt, %function
ecm_qc_get_alt:
	.fnstart
	@ args = 0, pretend = 0, frame = 0
	@ frame_needed = 0, uses_anonymous_args = 0
	@ link register save eliminated.
	ldrb	r3, [r0, #120]	@ zero_extendqisi2
	cmp	r3, r1
	beq	.L358
	ldr	r3, [r0, #88]
	ldr	r0, [r3]
	adds	r0, r0, #0
	movne	r0, #1
	bx	lr
.L358:
	mov	r0, #0
	bx	lr
	.fnend
	.size	ecm_qc_get_alt, .-ecm_qc_get_alt
	.align	2
	.syntax unified
	.arm
	.fpu softvfp
	.type	ecm_qc_open, %function
ecm_qc_open:
	.fnstart
	@ args = 0, pretend = 0, frame = 0
	@ frame_needed = 0, uses_anonymous_args = 0
	@ link register save eliminated.
	mov	r2, #1
	strb	r2, [r0, #152]
	strb	r2, [r0, #153]
	b	ecm_qc_do_notify
	.fnend
	.size	ecm_qc_open, .-ecm_qc_open
	.align	2
	.syntax unified
	.arm
	.fpu softvfp
	.type	ecm_qc_close, %function
ecm_qc_close:
	.fnstart
	@ args = 0, pretend = 0, frame = 0
	@ frame_needed = 0, uses_anonymous_args = 0
	@ link register save eliminated.
	mov	r1, #0
	mov	r2, #1
	strb	r2, [r0, #152]
	strb	r1, [r0, #153]
	b	ecm_qc_do_notify
	.fnend
	.size	ecm_qc_close, .-ecm_qc_close
	.align	2
	.syntax unified
	.arm
	.fpu softvfp
	.type	mbim_get_alt, %function
mbim_get_alt:
	.fnstart
	@ args = 0, pretend = 0, frame = 0
	@ frame_needed = 0, uses_anonymous_args = 0
	@ link register save eliminated.
	ldrb	r3, [r0, #196]	@ zero_extendqisi2
	cmp	r3, r1
	beq	.L363
	ldrb	r3, [r0, #197]	@ zero_extendqisi2
	cmp	r3, r1
	bne	.L364
	ldrb	r0, [r0, #198]	@ zero_extendqisi2
	bx	lr
.L363:
	mov	r0, #0
	bx	lr
.L364:
	mvn	r0, #21
	bx	lr
	.fnend
	.size	mbim_get_alt, .-mbim_get_alt
	.align	2
	.syntax unified
	.arm
	.fpu softvfp
	.type	ecm_do_notify, %function
ecm_do_notify:
	.fnstart
	@ args = 0, pretend = 0, frame = 0
	@ frame_needed = 0, uses_anonymous_args = 0
	strd	r4, [sp, #-16]!
	.save {r4, r5, r6, lr}
	str	r6, [sp, #8]
	str	lr, [sp, #12]
	ldr	r5, [r0, #168]
	cmp	r5, #0
	beq	.L365
	ldrb	r2, [r0, #172]	@ zero_extendqisi2
	ldr	r3, [r5]
	cmp	r2, #1
	beq	.L369
	bcc	.L365
	cmp	r2, #2
	bne	.L368
	ldr	ip, [r0, #20]
	mov	r2, #0
	mov	r1, #8
	mov	r4, #42
	mov	lr, #16
	ldr	ip, [ip, #24]
	strb	r4, [r3, #1]
	strb	r2, [r3, #2]
	strb	r2, [r3, #3]
	strb	r1, [r3, #6]
	strb	r2, [r3, #7]
	ldr	r1, [r5]
	str	lr, [r5, #4]
	ldr	r2, [ip]
	ldr	ip, [r2, #20]
	cmp	ip, #4
	bls	.L373
	ldr	ip, [r2, #16]
	cmp	ip, #5
	beq	.L381
.L375:
	mov	lr, #0
	mov	r2, #28672
	movt	lr, 6500
	cmp	ip, #3
	movt	r2, 148
	moveq	r2, lr
.L374:
	mov	ip, #0
	str	r2, [r1, #8]
	str	r2, [r1, #12]
	strb	ip, [r0, #172]
.L368:
	mov	r4, r0
	mvn	r0, #94
	mov	ip, #0
	mov	r2, #32
	strb	r0, [r3]
	ldrb	r0, [r4, #148]	@ zero_extendqisi2
	mov	r1, r5
	strh	r0, [r3, #4]	@ unaligned
	ldr	r0, [r4, #164]
	str	ip, [r4, #168]
	ldr	r3, [r0, #8]
	ldr	r3, [r3, #16]
	blx	r3
	cmp	r0, #0
	strlt	r5, [r4, #168]
.L365:
	ldrd	r4, [sp]
	ldr	r6, [sp, #8]
	add	sp, sp, #12
	ldr	pc, [sp], #4
.L369:
	mov	ip, #0
	strb	ip, [r3, #1]
	ldrb	r1, [r0, #173]	@ zero_extendqisi2
	cmp	r1, ip
	strbne	r2, [r3, #2]
	mov	r2, #0
	strbne	ip, [r3, #3]
	mov	ip, #8
	strbeq	r1, [r3, #2]
	strbeq	r1, [r3, #3]
	mov	r1, #2
	strb	r2, [r3, #6]
	strb	r2, [r3, #7]
	str	ip, [r5, #4]
	strb	r1, [r0, #172]
	b	.L368
.L373:
	cmp	ip, #2
	movls	r2, #28672
	movtls	r2, 148
	bls	.L374
	ldr	ip, [r2, #16]
	b	.L375
.L381:
	mov	r2, #0
	movt	r2, 13000
	b	.L374
	.fnend
	.size	ecm_do_notify, .-ecm_do_notify
	.align	2
	.syntax unified
	.arm
	.fpu softvfp
	.type	ecm_notify_complete, %function
ecm_notify_complete:
	.fnstart
	@ args = 0, pretend = 0, frame = 0
	@ frame_needed = 0, uses_anonymous_args = 0
	@ link register save eliminated.
	ldr	r0, [r1, #32]
	ldr	r3, [r1, #44]
	cmn	r3, #108
	beq	.L384
	cmn	r3, #104
	beq	.L384
	str	r1, [r0, #168]
	b	ecm_do_notify
.L384:
	mov	r3, #0
	str	r1, [r0, #168]
	strb	r3, [r0, #172]
	b	ecm_do_notify
	.fnend
	.size	ecm_notify_complete, .-ecm_notify_complete
	.align	2
	.syntax unified
	.arm
	.fpu softvfp
	.type	ecm_get_alt, %function
ecm_get_alt:
	.fnstart
	@ args = 0, pretend = 0, frame = 0
	@ frame_needed = 0, uses_anonymous_args = 0
	@ link register save eliminated.
	ldrb	r3, [r0, #148]	@ zero_extendqisi2
	cmp	r3, r1
	beq	.L393
	ldr	r3, [r0, #88]
	ldr	r0, [r3]
	adds	r0, r0, #0
	movne	r0, #1
	bx	lr
.L393:
	mov	r0, #0
	bx	lr
	.fnend
	.size	ecm_get_alt, .-ecm_get_alt
	.align	2
	.syntax unified
	.arm
	.fpu softvfp
	.type	ecm_open, %function
ecm_open:
	.fnstart
	@ args = 0, pretend = 0, frame = 0
	@ frame_needed = 0, uses_anonymous_args = 0
	@ link register save eliminated.
	mov	r2, #1
	strb	r2, [r0, #172]
	strb	r2, [r0, #173]
	b	ecm_do_notify
	.fnend
	.size	ecm_open, .-ecm_open
	.align	2
	.syntax unified
	.arm
	.fpu softvfp
	.type	ecm_close, %function
ecm_close:
	.fnstart
	@ args = 0, pretend = 0, frame = 0
	@ frame_needed = 0, uses_anonymous_args = 0
	@ link register save eliminated.
	mov	r1, #0
	mov	r2, #1
	strb	r2, [r0, #172]
	strb	r1, [r0, #173]
	b	ecm_do_notify
	.fnend
	.size	ecm_close, .-ecm_close
	.align	2
	.syntax unified
	.arm
	.fpu softvfp
	.type	ueth_change_mtu, %function
ueth_change_mtu:
	.fnstart
	@ args = 0, pretend = 0, frame = 0
	@ frame_needed = 0, uses_anonymous_args = 0
	strd	r4, [sp, #-16]!
	.save {r4, r5, r6, lr}
	add	r5, r0, #1152
	mov	r4, r0
	mov	r0, r5
	str	r6, [sp, #8]
	mov	r6, r1
	str	lr, [sp, #12]
	bl	_raw_spin_lock_irqsave
	ldr	r3, [r4, #1156]
	mov	r1, r0
	cmp	r3, #0
	bne	.L398
	sub	r0, r6, #15
	movw	r2, #1499
	cmp	r0, r2
	bhi	.L399
	str	r6, [r4, #356]
	mov	r4, r3
.L397:
	mov	r0, r5
	bl	_raw_spin_unlock_irqrestore
	ldr	r6, [sp, #8]
	mov	r0, r4
	ldrd	r4, [sp]
	add	sp, sp, #12
	ldr	pc, [sp], #4
.L398:
	mvn	r4, #15
	b	.L397
.L399:
	mvn	r4, #33
	b	.L397
	.fnend
	.size	ueth_change_mtu, .-ueth_change_mtu
	.align	2
	.syntax unified
	.arm
	.fpu softvfp
	.type	ueth_qc_change_mtu, %function
ueth_qc_change_mtu:
	.fnstart
	@ args = 0, pretend = 0, frame = 0
	@ frame_needed = 0, uses_anonymous_args = 0
	strd	r4, [sp, #-16]!
	.save {r4, r5, r6, lr}
	add	r5, r0, #1152
	mov	r4, r0
	mov	r0, r5
	str	r6, [sp, #8]
	mov	r6, r1
	str	lr, [sp, #12]
	bl	_raw_spin_lock_irqsave
	ldr	r3, [r4, #1156]
	mov	r1, r0
	cmp	r3, #0
	bne	.L403
	sub	r0, r6, #15
	movw	r2, #1499
	cmp	r0, r2
	bhi	.L404
	str	r6, [r4, #356]
	mov	r4, r3
.L402:
	mov	r0, r5
	bl	_raw_spin_unlock_irqrestore
	ldr	r6, [sp, #8]
	mov	r0, r4
	ldrd	r4, [sp]
	add	sp, sp, #12
	ldr	pc, [sp], #4
.L403:
	mvn	r4, #15
	b	.L402
.L404:
	mvn	r4, #33
	b	.L402
	.fnend
	.size	ueth_qc_change_mtu, .-ueth_qc_change_mtu
	.align	2
	.syntax unified
	.arm
	.fpu softvfp
	.type	eth_qc_start_xmit, %function
eth_qc_start_xmit:
	.fnstart
	@ args = 0, pretend = 0, frame = 0
	@ frame_needed = 0, uses_anonymous_args = 0
	@ link register save eliminated.
	mov	r0, #0
	bx	lr
	.fnend
	.size	eth_qc_start_xmit, .-eth_qc_start_xmit
	.align	2
	.syntax unified
	.arm
	.fpu softvfp
	.type	f_audio_get_alt, %function
f_audio_get_alt:
	.fnstart
	@ args = 0, pretend = 0, frame = 0
	@ frame_needed = 0, uses_anonymous_args = 0
	@ link register save eliminated.
	movw	r3, #:lower16:.LANCHOR0
	movt	r3, #:upper16:.LANCHOR0
	ldrb	r2, [r3, #16]	@ zero_extendqisi2
	cmp	r2, r1
	beq	.L411
	ldrb	r3, [r3, #17]	@ zero_extendqisi2
	cmp	r3, r1
	ldrbeq	r0, [r0, #249]	@ zero_extendqisi2
	movne	r0, #0
	bx	lr
.L411:
	ldrb	r0, [r0, #248]	@ zero_extendqisi2
	bx	lr
	.fnend
	.size	f_audio_get_alt, .-f_audio_get_alt
	.align	2
	.syntax unified
	.arm
	.fpu softvfp
	.type	f_audio_disable, %function
f_audio_disable:
	.fnstart
	@ args = 0, pretend = 0, frame = 0
	@ frame_needed = 0, uses_anonymous_args = 0
	@ link register save eliminated.
	movw	r3, #:lower16:.LANCHOR1
	mov	r2, #0
	movt	r3, #:upper16:.LANCHOR1
	strb	r2, [r3, #2224]
	bx	lr
	.fnend
	.size	f_audio_disable, .-f_audio_disable
	.align	2
	.syntax unified
	.arm
	.fpu softvfp
	.type	generic_set_cmd, %function
generic_set_cmd:
	.fnstart
	@ args = 0, pretend = 0, frame = 0
	@ frame_needed = 0, uses_anonymous_args = 0
	@ link register save eliminated.
	add	r1, r1, #4
	str	r2, [r0, r1, lsl #2]
	mov	r0, #0
	bx	lr
	.fnend
	.size	generic_set_cmd, .-generic_set_cmd
	.align	2
	.syntax unified
	.arm
	.fpu softvfp
	.type	generic_get_cmd, %function
generic_get_cmd:
	.fnstart
	@ args = 0, pretend = 0, frame = 0
	@ frame_needed = 0, uses_anonymous_args = 0
	@ link register save eliminated.
	add	r1, r1, #4
	ldr	r0, [r0, r1, lsl #2]
	bx	lr
	.fnend
	.size	generic_get_cmd, .-generic_get_cmd
	.align	2
	.syntax unified
	.arm
	.fpu softvfp
	.type	conn_gadget_out_max_packet_size_store, %function
conn_gadget_out_max_packet_size_store:
	.fnstart
	@ args = 0, pretend = 0, frame = 0
	@ frame_needed = 0, uses_anonymous_args = 0
	@ link register save eliminated.
	mov	r0, r3
	bx	lr
	.fnend
	.size	conn_gadget_out_max_packet_size_store, .-conn_gadget_out_max_packet_size_store
	.align	2
	.syntax unified
	.arm
	.fpu softvfp
	.type	ncm_do_notify, %function
ncm_do_notify:
	.fnstart
	@ args = 0, pretend = 0, frame = 0
	@ frame_needed = 0, uses_anonymous_args = 0
	strd	r4, [sp, #-24]!
	.save {r4, r5, r6, r7, r8, lr}
	strd	r6, [sp, #8]
	str	r8, [sp, #16]
	str	lr, [sp, #20]
	ldr	r5, [r0, #168]
	cmp	r5, #0
	beq	.L416
	ldrb	r2, [r0, #172]	@ zero_extendqisi2
	ldr	r3, [r5]
	cmp	r2, #1
	beq	.L420
	bcc	.L416
	cmp	r2, #2
	bne	.L419
	ldr	ip, [r0, #20]
	mov	r2, #0
	mov	r1, #8
	mov	r4, #42
	mov	lr, #16
	ldr	ip, [ip, #24]
	strb	r4, [r3, #1]
	strb	r2, [r3, #2]
	strb	r2, [r3, #3]
	strb	r1, [r3, #6]
	strb	r2, [r3, #7]
	ldr	r1, [r5]
	str	lr, [r5, #4]
	ldr	r2, [ip]
	ldr	ip, [r2, #20]
	cmp	ip, #2
	movls	r2, #28672
	movtls	r2, 148
	bls	.L424
	ldr	lr, [r2, #16]
	mov	ip, #0
	mov	r2, #28672
	movt	ip, 6500
	movt	r2, 148
	cmp	lr, #3
	moveq	r2, ip
.L424:
	mov	ip, #1
	str	r2, [r1, #8]
	str	r2, [r1, #12]
	strb	ip, [r0, #172]
.L419:
	mvn	r1, #94
	mov	r4, r0
	mov	r2, #0
	add	r6, r0, #188
	strb	r1, [r3]
	ldrb	r1, [r4, #148]	@ zero_extendqisi2
	mov	r0, r6
	strh	r1, [r3, #4]	@ unaligned
	str	r2, [r4, #168]
	bl	_raw_spin_unlock
	ldr	r0, [r4, #164]
	mov	r2, #32
	mov	r1, r5
	ldr	r3, [r0, #8]
	ldr	r3, [r3, #16]
	blx	r3
	mov	r7, r0
	mov	r0, r6
	bl	_raw_spin_lock
	cmp	r7, #0
	strlt	r5, [r4, #168]
.L416:
	ldrd	r4, [sp]
	ldrd	r6, [sp, #8]
	ldr	r8, [sp, #16]
	add	sp, sp, #20
	ldr	pc, [sp], #4
.L420:
	mov	ip, #0
	strb	ip, [r3, #1]
	ldrb	r1, [r0, #173]	@ zero_extendqisi2
	cmp	r1, ip
	strbne	r2, [r3, #2]
	mov	r2, #0
	strbeq	r1, [r3, #2]
	strbeq	r1, [r3, #3]
	mov	r1, #8
	strbne	ip, [r3, #3]
	strb	r2, [r3, #6]
	strb	r2, [r3, #7]
	str	r1, [r5, #4]
	strb	r2, [r0, #172]
	b	.L419
	.fnend
	.size	ncm_do_notify, .-ncm_do_notify
	.align	2
	.syntax unified
	.arm
	.fpu softvfp
	.type	ncm_notify_complete, %function
ncm_notify_complete:
	.fnstart
	@ args = 0, pretend = 0, frame = 0
	@ frame_needed = 0, uses_anonymous_args = 0
	strd	r4, [sp, #-16]!
	.save {r4, r5, r6, lr}
	ldr	r4, [r1, #32]
	mov	r5, r1
	str	r6, [sp, #8]
	str	lr, [sp, #12]
	add	r6, r4, #188
	mov	r0, r6
	bl	_raw_spin_lock
	ldr	r3, [r5, #44]
	cmn	r3, #108
	beq	.L431
	cmn	r3, #104
	beq	.L431
.L430:
	mov	r0, r4
	str	r5, [r4, #168]
	bl	ncm_do_notify
	ldrd	r4, [sp]
	mov	r0, r6
	ldr	r6, [sp, #8]
	ldr	lr, [sp, #12]
	add	sp, sp, #16
	b	_raw_spin_unlock
.L431:
	mov	r3, #0
	strb	r3, [r4, #172]
	b	.L430
	.fnend
	.size	ncm_notify_complete, .-ncm_notify_complete
	.align	2
	.syntax unified
	.arm
	.fpu softvfp
	.type	ncm_ep0out_complete, %function
ncm_ep0out_complete:
	.fnstart
	@ args = 0, pretend = 0, frame = 0
	@ frame_needed = 0, uses_anonymous_args = 0
	@ link register save eliminated.
	mov	r2, #0
	ldr	ip, [r1, #32]
	ldr	r3, [r1, #44]
	str	r2, [r1, #32]
	cmp	r3, r2
	beq	.L443
.L440:
	ldr	r3, [r0, #8]
	mov	r1, #1
	ldr	r3, [r3, #24]
	bx	r3
.L443:
	ldr	r3, [r1, #4]
	ldr	r2, [r1, #48]
	cmp	r2, r3
	bne	.L440
	ldr	r3, [r1]
	ldr	r3, [r3]	@ unaligned
	cmp	r3, #2048
	bcc	.L440
	movw	r2, #:lower16:.LANCHOR0
	movt	r2, #:upper16:.LANCHOR0
	ldr	r2, [r2, #24]
	cmp	r2, r3
	bcc	.L440
	str	r3, [ip, #112]
	bx	lr
	.fnend
	.size	ncm_ep0out_complete, .-ncm_ep0out_complete
	.align	2
	.syntax unified
	.arm
	.fpu softvfp
	.type	ncm_get_alt, %function
ncm_get_alt:
	.fnstart
	@ args = 0, pretend = 0, frame = 0
	@ frame_needed = 0, uses_anonymous_args = 0
	@ link register save eliminated.
	ldrb	r3, [r0, #148]	@ zero_extendqisi2
	cmp	r3, r1
	beq	.L446
	ldr	r3, [r0, #88]
	ldr	r0, [r3]
	adds	r0, r0, #0
	movne	r0, #1
	bx	lr
.L446:
	mov	r0, #0
	bx	lr
	.fnend
	.size	ncm_get_alt, .-ncm_get_alt
	.align	2
	.syntax unified
	.arm
	.fpu softvfp
	.type	ncm_open, %function
ncm_open:
	.fnstart
	@ args = 0, pretend = 0, frame = 0
	@ frame_needed = 0, uses_anonymous_args = 0
	strd	r4, [sp, #-16]!
	.save {r4, r5, r6, lr}
	add	r5, r0, #188
	mov	r4, r0
	mov	r0, r5
	str	r6, [sp, #8]
	str	lr, [sp, #12]
	bl	_raw_spin_lock
	mov	r3, #1
	mov	r2, #2
	mov	r0, r4
	strb	r2, [r4, #172]
	strb	r3, [r4, #173]
	bl	ncm_do_notify
	ldr	r6, [sp, #8]
	mov	r0, r5
	ldrd	r4, [sp]
	ldr	lr, [sp, #12]
	add	sp, sp, #16
	b	_raw_spin_unlock
	.fnend
	.size	ncm_open, .-ncm_open
	.align	2
	.syntax unified
	.arm
	.fpu softvfp
	.type	ncm_close, %function
ncm_close:
	.fnstart
	@ args = 0, pretend = 0, frame = 0
	@ frame_needed = 0, uses_anonymous_args = 0
	strd	r4, [sp, #-16]!
	.save {r4, r5, r6, lr}
	add	r5, r0, #188
	mov	r4, r0
	mov	r0, r5
	str	r6, [sp, #8]
	str	lr, [sp, #12]
	bl	_raw_spin_lock
	mov	r3, #0
	mov	r2, #2
	mov	r0, r4
	strb	r2, [r4, #172]
	strb	r3, [r4, #173]
	bl	ncm_do_notify
	ldr	r6, [sp, #8]
	mov	r0, r5
	ldrd	r4, [sp]
	ldr	lr, [sp, #12]
	add	sp, sp, #16
	b	_raw_spin_unlock
	.fnend
	.size	ncm_close, .-ncm_close
	.align	2
	.syntax unified
	.arm
	.fpu softvfp
	.type	audio_source_function_unbind_config, %function
audio_source_function_unbind_config:
	.fnstart
	@ args = 0, pretend = 0, frame = 0
	@ frame_needed = 0, uses_anonymous_args = 0
	@ link register save eliminated.
	ldr	r3, [r0, #4]
	mvn	r2, #0
	str	r2, [r3]
	str	r2, [r3, #4]
	bx	lr
	.fnend
	.size	audio_source_function_unbind_config, .-audio_source_function_unbind_config
	.align	2
	.syntax unified
	.arm
	.fpu softvfp
	.type	uasp_function_bind_config, %function
uasp_function_bind_config:
	.fnstart
	@ args = 0, pretend = 0, frame = 0
	@ frame_needed = 0, uses_anonymous_args = 0
	@ link register save eliminated.
	mvn	r0, #18
	bx	lr
	.fnend
	.size	uasp_function_bind_config, .-uasp_function_bind_config
	.align	2
	.syntax unified
	.arm
	.fpu softvfp
	.type	android_unbind_config, %function
android_unbind_config:
	.fnstart
	@ args = 0, pretend = 0, frame = 0
	@ frame_needed = 0, uses_anonymous_args = 0
	movw	r3, #:lower16:.LANCHOR1
	strd	r4, [sp, #-16]!
	.save {r4, r5, r6, lr}
	ldr	ip, .L469
	movt	r3, #:upper16:.LANCHOR1
	str	r6, [sp, #8]
	mov	r5, r0
	str	lr, [sp, #12]
	ldr	r3, [r3, #2228]
	ldr	r1, [r0, #24]
	cmp	r3, ip
	beq	.L454
	sub	r2, r3, #520
	ldr	r3, [r3, #-512]
	cmp	r1, r3
	bne	.L455
	b	.L454
.L456:
	ldr	r3, [r3, #-512]
	cmp	r1, r3
	beq	.L454
.L455:
	ldr	r3, [r2, #520]
	cmp	r3, ip
	sub	r2, r3, #520
	bne	.L456
.L454:
	ldr	r3, [r1]
	mov	r6, r5
	ldrb	r2, [r3, #378]	@ zero_extendqisi2
	cmp	r2, #0
	movne	r2, #0
	strbne	r2, [r3, #378]
	ldr	r4, [r6, #112]!
	cmp	r6, r4
	sub	r4, r4, #4
	beq	.L453
.L460:
	ldr	r0, [r4]
	mov	r1, r5
	ldr	r3, [r0, #44]
	cmp	r3, #0
	beq	.L459
	blx	r3
.L459:
	ldr	r4, [r4, #4]
	cmp	r6, r4
	sub	r4, r4, #4
	bne	.L460
.L453:
	ldrd	r4, [sp]
	ldr	r6, [sp, #8]
	add	sp, sp, #12
	ldr	pc, [sp], #4
.L470:
	.align	2
.L469:
	.word	.LANCHOR1+2228
	.fnend
	.size	android_unbind_config, .-android_unbind_config
	.align	2
	.syntax unified
	.arm
	.fpu softvfp
	.type	gs_buf_put, %function
gs_buf_put:
	.fnstart
	@ args = 0, pretend = 0, frame = 0
	@ frame_needed = 0, uses_anonymous_args = 0
	strd	r4, [sp, #-24]!
	.save {r4, r5, r6, r7, r8, lr}
	mov	r5, r2
	mov	r4, r0
	strd	r6, [sp, #8]
	mov	r6, r1
	str	r8, [sp, #16]
	str	lr, [sp, #20]
	ldr	ip, [r0]
	ldr	r3, [r0, #8]
	ldr	lr, [r0, #12]
	add	r3, r3, ip
	sub	r3, r3, lr
	sub	r3, r3, #1
	udiv	r2, r3, ip
	mls	r0, ip, r2, r3
	cmp	r5, r0
	bls	.L472
	cmp	r0, #0
	bne	.L480
.L471:
	ldrd	r4, [sp]
	ldrd	r6, [sp, #8]
	ldr	r8, [sp, #16]
	add	sp, sp, #20
	ldr	pc, [sp], #4
.L480:
	mov	r5, r0
.L472:
	ldr	r7, [r4, #4]
	add	ip, r7, ip
	sub	r7, ip, lr
	cmp	r7, r5
	bcc	.L481
	mov	r1, r6
	mov	r0, lr
	mov	r2, r5
	bl	memcpy
	cmp	r7, r5
	bhi	.L482
	ldr	r3, [r4, #4]
	mov	r0, r5
	str	r3, [r4, #12]
	b	.L471
.L481:
	mov	r0, lr
	mov	r2, r7
	mov	r1, r6
	sub	r8, r5, r7
	bl	memcpy
	mov	r2, r8
	add	r1, r6, r7
	ldr	r0, [r4, #4]
	bl	memcpy
	ldr	r2, [r4, #4]
	mov	r0, r5
	add	r2, r2, r8
	str	r2, [r4, #12]
	b	.L471
.L482:
	ldr	r3, [r4, #12]
	mov	r0, r5
	add	r5, r3, r5
	str	r5, [r4, #12]
	b	.L471
	.fnend
	.size	gs_buf_put, .-gs_buf_put
	.align	2
	.syntax unified
	.arm
	.fpu softvfp
	.type	gs_put_char, %function
gs_put_char:
	.fnstart
	@ args = 0, pretend = 0, frame = 8
	@ frame_needed = 0, uses_anonymous_args = 0
	strd	r4, [sp, #-16]!
	.save {r4, r5, r6, lr}
	str	r6, [sp, #8]
	str	lr, [sp, #12]
	ldr	r4, [r0, #272]
	.pad #8
	sub	sp, sp, #8
	add	r5, sp, #8
	strb	r1, [r5, #-1]!
	mov	r0, r4
	bl	_raw_spin_lock_irqsave
	mov	r6, r0
	mov	r1, r5
	mov	r2, #1
	add	r0, r4, #92
	bl	gs_buf_put
	mov	r5, r0
	mov	r1, r6
	mov	r0, r4
	bl	_raw_spin_unlock_irqrestore
	mov	r0, r5
	add	sp, sp, #8
	@ sp needed
	ldrd	r4, [sp]
	ldr	r6, [sp, #8]
	add	sp, sp, #12
	ldr	pc, [sp], #4
	.fnend
	.size	gs_put_char, .-gs_put_char
	.align	2
	.syntax unified
	.arm
	.fpu softvfp
	.type	audio_set_endpoint_complete, %function
audio_set_endpoint_complete:
	.fnstart
	@ args = 0, pretend = 0, frame = 8
	@ frame_needed = 0, uses_anonymous_args = 0
	strd	r4, [sp, #-16]!
	.save {r4, r5, r6, lr}
	mov	r3, #0
	str	r6, [sp, #8]
	str	lr, [sp, #12]
	.pad #8
	sub	sp, sp, #8
	ldr	r5, [r1, #32]
	ldr	r4, [r1, #44]
	str	r3, [sp, #4]
	cmp	r4, r3
	bne	.L485
	ldr	r6, [r5, #272]
	cmp	r6, r3
	beq	.L485
	ldm	r1, {r1, r2}
	add	r0, sp, #4
	bl	memcpy
	ldr	r2, [sp, #4]
	mov	r0, r6
	ldrb	r1, [r5, #268]	@ zero_extendqisi2
	ldr	r3, [r6, #36]
	blx	r3
	str	r4, [r5, #272]
.L485:
	add	sp, sp, #8
	@ sp needed
	ldrd	r4, [sp]
	ldr	r6, [sp, #8]
	add	sp, sp, #12
	ldr	pc, [sp], #4
	.fnend
	.size	audio_set_endpoint_complete, .-audio_set_endpoint_complete
	.align	2
	.syntax unified
	.arm
	.fpu softvfp
	.type	midi_function_init, %function
midi_function_init:
	.fnstart
	@ args = 0, pretend = 0, frame = 0
	@ frame_needed = 0, uses_anonymous_args = 0
	movw	r3, #:lower16:kmalloc_caches
	.save {r4, lr}
	str	r4, [sp, #-8]!
	movt	r3, #:upper16:kmalloc_caches
	str	lr, [sp, #4]
	ldr	r3, [r3, #24]
	cmp	r3, #0
	beq	.L497
	mov	r4, r0
	mov	r2, #8
	mov	r0, r3
	movw	r1, #32976
	bl	kmem_cache_alloc_trace
	cmp	r0, #0
	mov	r3, r0
	str	r0, [r4, #4]
	beq	.L495
.L493:
	mvn	r2, #0
	mov	r0, #0
	str	r2, [r3]
	str	r2, [r3, #4]
.L491:
	ldr	r4, [sp]
	add	sp, sp, #4
	ldr	pc, [sp], #4
.L497:
	mov	r2, #16
	mov	r3, r2
	str	r2, [r0, #4]
	b	.L493
.L495:
	mvn	r0, #11
	b	.L491
	.fnend
	.size	midi_function_init, .-midi_function_init
	.align	2
	.syntax unified
	.arm
	.fpu softvfp
	.type	ecm_function_init, %function
ecm_function_init:
	.fnstart
	@ args = 0, pretend = 0, frame = 0
	@ frame_needed = 0, uses_anonymous_args = 0
	movw	r3, #:lower16:kmalloc_caches
	movt	r3, #:upper16:kmalloc_caches
	ldr	r3, [r3, #24]
	cmp	r3, #0
	beq	.L505
	.save {r4, lr}
	str	r4, [sp, #-8]!
	mov	r2, #6
	mov	r4, r0
	movw	r1, #32976
	mov	r0, r3
	str	lr, [sp, #4]
	bl	kmem_cache_alloc_trace
	cmp	r0, #0
	str	r0, [r4, #4]
	mvneq	r3, #11
	movne	r3, #0
	ldr	r4, [sp]
	add	sp, sp, #4
	mov	r0, r3
	ldr	pc, [sp], #4
.L505:
	mov	r2, #16
	str	r2, [r0, #4]
	mov	r0, r3
	bx	lr
	.fnend
	.size	ecm_function_init, .-ecm_function_init
	.align	2
	.syntax unified
	.arm
	.fpu softvfp
	.type	rndis_function_init, %function
rndis_function_init:
	.fnstart
	@ args = 0, pretend = 0, frame = 0
	@ frame_needed = 0, uses_anonymous_args = 0
	movw	r3, #:lower16:kmalloc_caches
	movt	r3, #:upper16:kmalloc_caches
	ldr	r3, [r3, #36]
	cmp	r3, #0
	beq	.L513
	.save {r4, lr}
	str	r4, [sp, #-8]!
	mov	r2, #272
	mov	r4, r0
	movw	r1, #32976
	mov	r0, r3
	str	lr, [sp, #4]
	bl	kmem_cache_alloc_trace
	cmp	r0, #0
	str	r0, [r4, #4]
	mvneq	r3, #11
	movne	r3, #0
	ldr	r4, [sp]
	add	sp, sp, #4
	mov	r0, r3
	ldr	pc, [sp], #4
.L513:
	mov	r2, #16
	str	r2, [r0, #4]
	mov	r0, r3
	bx	lr
	.fnend
	.size	rndis_function_init, .-rndis_function_init
	.align	2
	.syntax unified
	.arm
	.fpu softvfp
	.type	audio_source_function_init, %function
audio_source_function_init:
	.fnstart
	@ args = 0, pretend = 0, frame = 0
	@ frame_needed = 0, uses_anonymous_args = 0
	movw	r3, #:lower16:kmalloc_caches
	.save {r4, lr}
	str	r4, [sp, #-8]!
	mov	r4, r0
	movt	r3, #:upper16:kmalloc_caches
	str	lr, [sp, #4]
	ldr	r0, [r3, #24]
	cmp	r0, #0
	beq	.L517
	mov	r2, #8
	movw	r1, #32976
	bl	kmem_cache_alloc_trace
	subs	r3, r0, #0
	beq	.L520
.L515:
	mvn	r2, #0
	mov	r0, #0
	str	r2, [r3]
	str	r2, [r3, #4]
	str	r3, [r4, #4]
.L514:
	ldr	r4, [sp]
	add	sp, sp, #4
	ldr	pc, [sp], #4
.L517:
	mov	r3, #16
	b	.L515
.L520:
	mvn	r0, #11
	b	.L514
	.fnend
	.size	audio_source_function_init, .-audio_source_function_init
	.align	2
	.syntax unified
	.arm
	.fpu softvfp
	.type	adb_request_new, %function
adb_request_new:
	.fnstart
	@ args = 0, pretend = 0, frame = 0
	@ frame_needed = 0, uses_anonymous_args = 0
	strd	r4, [sp, #-16]!
	.save {r4, r5, r6, lr}
	mov	r5, r0
	str	r6, [sp, #8]
	mov	r6, r1
	mov	r1, #208
	str	lr, [sp, #12]
	ldr	r3, [r0, #8]
	ldr	r3, [r3, #8]
	blx	r3
	subs	r4, r0, #0
	beq	.L521
	mov	r0, r6
	mov	r1, #208
	bl	__kmalloc
	cmp	r0, #0
	mov	r3, r0
	str	r0, [r4]
	beq	.L527
.L521:
	mov	r0, r4
	ldrd	r4, [sp]
	ldr	r6, [sp, #8]
	add	sp, sp, #12
	ldr	pc, [sp], #4
.L527:
	ldr	r2, [r5, #8]
	mov	r1, r4
	mov	r0, r5
	mov	r4, r3
	ldr	r3, [r2, #12]
	blx	r3
	b	.L521
	.fnend
	.size	adb_request_new, .-adb_request_new
	.set	conn_gadget_request_new,adb_request_new
	.set	acc_request_new,adb_request_new
	.set	mtp_request_new,adb_request_new
	.align	2
	.syntax unified
	.arm
	.fpu softvfp
	.type	midi_alloc_ep_req, %function
midi_alloc_ep_req:
	.fnstart
	@ args = 0, pretend = 0, frame = 0
	@ frame_needed = 0, uses_anonymous_args = 0
	strd	r4, [sp, #-16]!
	.save {r4, r5, r6, lr}
	mov	r5, r1
	mov	r1, #32
	str	r6, [sp, #8]
	mov	r6, r0
	str	lr, [sp, #12]
	ldr	r3, [r0, #8]
	ldr	r3, [r3, #8]
	blx	r3
	subs	r4, r0, #0
	beq	.L528
	mov	r0, r5
	mov	r1, #32
	str	r5, [r4, #4]
	bl	__kmalloc
	cmp	r0, #0
	mov	r3, r0
	str	r0, [r4]
	beq	.L534
.L528:
	mov	r0, r4
	ldrd	r4, [sp]
	ldr	r6, [sp, #8]
	add	sp, sp, #12
	ldr	pc, [sp], #4
.L534:
	ldr	r2, [r6, #8]
	mov	r1, r4
	mov	r0, r6
	mov	r4, r3
	ldr	r3, [r2, #12]
	blx	r3
	b	.L528
	.fnend
	.size	midi_alloc_ep_req, .-midi_alloc_ep_req
	.align	2
	.syntax unified
	.arm
	.fpu softvfp
	.type	ccid_function_unbind, %function
ccid_function_unbind:
	.fnstart
	@ args = 0, pretend = 0, frame = 0
	@ frame_needed = 0, uses_anonymous_args = 0
	.save {r4, lr}
	str	r4, [sp, #-8]!
	mov	r4, r1
	str	lr, [sp, #4]
	ldr	r3, [r0, #24]
	ldr	r3, [r3]
	ldr	r3, [r3, #20]
	cmp	r3, #2
	bls	.L536
	ldr	r0, [r1, #8]
	bl	kfree
.L536:
	ldr	r0, [r4, #16]
	ldr	r4, [sp]
	ldr	lr, [sp, #4]
	add	sp, sp, #8
	b	kfree
	.fnend
	.size	ccid_function_unbind, .-ccid_function_unbind
	.align	2
	.syntax unified
	.arm
	.fpu softvfp
	.type	rmnet_mux_alloc_ctrl_pkt, %function
rmnet_mux_alloc_ctrl_pkt:
	.fnstart
	@ args = 0, pretend = 0, frame = 0
	@ frame_needed = 0, uses_anonymous_args = 0
	movw	r3, #:lower16:kmalloc_caches
	strd	r4, [sp, #-16]!
	.save {r4, r5, r6, lr}
	mov	r5, r0
	movt	r3, #:upper16:kmalloc_caches
	str	r6, [sp, #8]
	orr	r6, r1, #32768
	str	lr, [sp, #12]
	ldr	r0, [r3, #24]
	cmp	r0, #0
	beq	.L543
	mov	r2, #16
	mov	r1, r6
	bl	kmem_cache_alloc_trace
	subs	r4, r0, #0
	beq	.L538
.L539:
	mov	r1, r6
	mov	r0, r5
	bl	__kmalloc
	cmp	r0, #0
	mov	r3, r0
	str	r0, [r4]
	strne	r5, [r4, #4]
	beq	.L549
.L538:
	mov	r0, r4
	ldrd	r4, [sp]
	ldr	r6, [sp, #8]
	add	sp, sp, #12
	ldr	pc, [sp], #4
.L543:
	mov	r4, #16
	b	.L539
.L549:
	mov	r0, r4
	mov	r4, r3
	bl	kfree
	b	.L538
	.fnend
	.size	rmnet_mux_alloc_ctrl_pkt, .-rmnet_mux_alloc_ctrl_pkt
	.align	2
	.syntax unified
	.arm
	.fpu softvfp
	.type	ghsuart_ctrl_receive, %function
ghsuart_ctrl_receive:
	.fnstart
	@ args = 0, pretend = 0, frame = 0
	@ frame_needed = 0, uses_anonymous_args = 0
	strd	r4, [sp, #-16]!
	.save {r4, r5, r6, lr}
	subs	r5, r0, #0
	str	r6, [sp, #8]
	moveq	r4, r5
	mov	r6, r1
	str	lr, [sp, #12]
	beq	.L551
	ldr	r3, [r5, #68]
	cmp	r3, #0
	beq	.L553
	ldr	r0, [r5, #12]
	blx	r3
	ldr	r3, [r5, #100]
	mov	r4, r0
	add	r3, r3, #1
	str	r3, [r5, #100]
.L551:
	mov	r0, r6
	bl	kfree
	ldr	r6, [sp, #8]
	mov	r0, r4
	ldrd	r4, [sp]
	add	sp, sp, #12
	ldr	pc, [sp], #4
.L553:
	mov	r4, r3
	b	.L551
	.fnend
	.size	ghsuart_ctrl_receive, .-ghsuart_ctrl_receive
	.align	2
	.syntax unified
	.arm
	.fpu softvfp
	.type	mbim_alloc_ctrl_pkt, %function
mbim_alloc_ctrl_pkt:
	.fnstart
	@ args = 0, pretend = 0, frame = 0
	@ frame_needed = 0, uses_anonymous_args = 0
	movw	r3, #:lower16:kmalloc_caches
	strd	r4, [sp, #-16]!
	.save {r4, r5, r6, lr}
	mov	r5, r0
	movt	r3, #:upper16:kmalloc_caches
	str	r6, [sp, #8]
	mov	r6, r1
	str	lr, [sp, #12]
	ldr	r0, [r3, #24]
	cmp	r0, #0
	beq	.L560
	mov	r2, #16
	orr	r1, r1, #32768
	bl	kmem_cache_alloc_trace
	subs	r4, r0, #0
	beq	.L564
.L556:
	mov	r1, r6
	mov	r0, r5
	bl	__kmalloc
	cmp	r0, #0
	str	r0, [r4]
	strne	r5, [r4, #4]
	beq	.L565
.L555:
	mov	r0, r4
	ldrd	r4, [sp]
	ldr	r6, [sp, #8]
	add	sp, sp, #12
	ldr	pc, [sp], #4
.L560:
	mov	r4, #16
	b	.L556
.L564:
	mvn	r4, #11
	b	.L555
.L565:
	mov	r0, r4
	mvn	r4, #11
	bl	kfree
	b	.L555
	.fnend
	.size	mbim_alloc_ctrl_pkt, .-mbim_alloc_ctrl_pkt
	.align	2
	.syntax unified
	.arm
	.fpu softvfp
	.type	ecm_function_cleanup, %function
ecm_function_cleanup:
	.fnstart
	@ args = 0, pretend = 0, frame = 0
	@ frame_needed = 0, uses_anonymous_args = 0
	.save {r4, lr}
	str	r4, [sp, #-8]!
	mov	r4, r0
	str	lr, [sp, #4]
	ldr	r0, [r0, #4]
	bl	kfree
	mov	r3, #0
	str	r3, [r4, #4]
	ldr	r4, [sp]
	add	sp, sp, #4
	ldr	pc, [sp], #4
	.fnend
	.size	ecm_function_cleanup, .-ecm_function_cleanup
	.align	2
	.syntax unified
	.arm
	.fpu softvfp
	.type	rndis_function_cleanup, %function
rndis_function_cleanup:
	.fnstart
	@ args = 0, pretend = 0, frame = 0
	@ frame_needed = 0, uses_anonymous_args = 0
	@ link register save eliminated.
	b	ecm_function_cleanup
	.fnend
	.size	rndis_function_cleanup, .-rndis_function_cleanup
	.align	2
	.syntax unified
	.arm
	.fpu softvfp
	.type	mass_storage_function_cleanup, %function
mass_storage_function_cleanup:
	.fnstart
	@ args = 0, pretend = 0, frame = 0
	@ frame_needed = 0, uses_anonymous_args = 0
	@ link register save eliminated.
	b	ecm_function_cleanup
	.fnend
	.size	mass_storage_function_cleanup, .-mass_storage_function_cleanup
	.align	2
	.syntax unified
	.arm
	.fpu softvfp
	.type	midi_function_cleanup, %function
midi_function_cleanup:
	.fnstart
	@ args = 0, pretend = 0, frame = 0
	@ frame_needed = 0, uses_anonymous_args = 0
	@ link register save eliminated.
	ldr	r0, [r0, #4]
	b	kfree
	.fnend
	.size	midi_function_cleanup, .-midi_function_cleanup
	.align	2
	.syntax unified
	.arm
	.fpu softvfp
	.type	audio_source_function_cleanup, %function
audio_source_function_cleanup:
	.fnstart
	@ args = 0, pretend = 0, frame = 0
	@ frame_needed = 0, uses_anonymous_args = 0
	@ link register save eliminated.
	b	midi_function_cleanup
	.fnend
	.size	audio_source_function_cleanup, .-audio_source_function_cleanup
	.align	2
	.syntax unified
	.arm
	.fpu softvfp
	.type	frmnet_unbind, %function
frmnet_unbind:
	.fnstart
	@ args = 0, pretend = 0, frame = 0
	@ frame_needed = 0, uses_anonymous_args = 0
	strd	r4, [sp, #-16]!
	.save {r4, r5, r6, lr}
	mov	r4, r1
	str	r6, [sp, #8]
	str	lr, [sp, #12]
	ldr	r3, [r0, #24]
	ldr	r3, [r3]
	ldr	r3, [r3, #20]
	cmp	r3, #4
	bhi	.L576
.L573:
	cmp	r3, #2
	bls	.L574
	ldr	r0, [r4, #8]
	bl	kfree
.L574:
	ldr	r0, [r4, #16]
	bl	kfree
	ldr	r5, [r4, #136]
	ldr	r6, [r4, #140]
	ldr	r0, [r6]
	bl	kfree
	ldr	r3, [r5, #8]
	mov	r0, r5
	mov	r1, r6
	ldr	r3, [r3, #12]
	blx	r3
	ldr	r6, [sp, #8]
	ldr	r0, [r4]
	ldrd	r4, [sp]
	ldr	lr, [sp, #12]
	add	sp, sp, #16
	b	kfree
.L576:
	mov	r5, r0
	ldr	r0, [r1, #12]
	bl	kfree
	ldr	r3, [r5, #24]
	ldr	r3, [r3]
	ldr	r3, [r3, #20]
	b	.L573
	.fnend
	.size	frmnet_unbind, .-frmnet_unbind
	.align	2
	.syntax unified
	.arm
	.fpu softvfp
	.type	find_ep, %function
find_ep:
	.fnstart
	@ args = 0, pretend = 0, frame = 0
	@ frame_needed = 0, uses_anonymous_args = 0
	strd	r4, [sp, #-16]!
	.save {r4, r5, r6, lr}
	mov	r5, r0
	str	r6, [sp, #8]
	str	lr, [sp, #12]
	ldr	r4, [r5, #8]!
	cmp	r5, r4
	beq	.L580
	mov	r6, r1
	sub	r4, r4, #12
	b	.L579
.L586:
	ldr	r4, [r4, #12]
	cmp	r5, r4
	sub	r4, r4, #12
	beq	.L580
.L579:
	mov	r1, r6
	ldr	r0, [r4, #4]
	bl	strcmp
	cmp	r0, #0
	bne	.L586
.L577:
	mov	r0, r4
	ldrd	r4, [sp]
	ldr	r6, [sp, #8]
	add	sp, sp, #12
	ldr	pc, [sp], #4
.L580:
	mov	r4, #0
	b	.L577
	.fnend
	.size	find_ep, .-find_ep
	.align	2
	.syntax unified
	.arm
	.fpu softvfp
	.type	rmnet_smd_notify_complete, %function
rmnet_smd_notify_complete:
	.fnstart
	@ args = 0, pretend = 0, frame = 0
	@ frame_needed = 0, uses_anonymous_args = 0
	strd	r4, [sp, #-24]!
	.save {r4, r5, r6, r7, r8, lr}
	strd	r6, [sp, #8]
	str	r8, [sp, #16]
	str	lr, [sp, #20]
	ldr	r5, [r1, #32]
	ldr	r2, [r1, #44]
	ldr	r7, [r5, #84]
	cmn	r2, #104
	beq	.L589
	cmp	r2, #0
	mov	r6, r0
	mov	r4, r1
	beq	.L590
	cmn	r2, #108
	beq	.L589
	ldr	r0, [r7]
	movw	r1, #:lower16:.LC0
	movt	r1, #:upper16:.LC0
	add	r0, r0, #32
	bl	dev_err
.L590:
	ldr	r3, [r5, #96]
	cmp	r3, r6
	beq	.L611
.L587:
	ldrd	r4, [sp]
	ldrd	r6, [sp, #8]
	ldr	r8, [sp, #16]
	add	sp, sp, #20
	ldr	pc, [sp], #4
.L611:
	add	r6, r5, #172
	.syntax divided
@ 99 "/home/Jprimero15/hlte/lolz/arch/arm/include/asm/atomic.h" 1
	dmb
@ 0 "" 2
@ 101 "/home/Jprimero15/hlte/lolz/arch/arm/include/asm/atomic.h" 1
	@ atomic_sub_return
1:	ldrex	r3, [r6]
	sub	r3, r3, #1
	strex	r2, r3, [r6]
	teq	r2, #0
	bne	1b
@ 0 "" 2
@ 111 "/home/Jprimero15/hlte/lolz/arch/arm/include/asm/atomic.h" 1
	dmb
@ 0 "" 2
	.arm
	.syntax unified
	cmp	r3, #0
	beq	.L587
	ldr	r0, [r5, #96]
	mov	r2, #32
	mov	r1, r4
	ldr	r3, [r0, #8]
	ldr	r3, [r3, #16]
	blx	r3
	subs	r2, r0, #0
	beq	.L587
	.syntax divided
@ 83 "/home/Jprimero15/hlte/lolz/arch/arm/include/asm/atomic.h" 1
	@ atomic_sub
1:	ldrex	r3, [r6]
	sub	r3, r3, #1
	strex	r1, r3, [r6]
	teq	r1, #0
	bne	1b
@ 0 "" 2
	.arm
	.syntax unified
	ldr	r0, [r7]
	movw	r1, #:lower16:.LC1
	ldrd	r4, [sp]
	movt	r1, #:upper16:.LC1
	ldrd	r6, [sp, #8]
	ldr	r8, [sp, #16]
	ldr	lr, [sp, #20]
	add	r0, r0, #32
	add	sp, sp, #24
	b	dev_err
.L589:
	mov	r3, #0
	str	r3, [r5, #172]
	b	.L587
	.fnend
	.size	rmnet_smd_notify_complete, .-rmnet_smd_notify_complete
	.align	2
	.syntax unified
	.arm
	.fpu softvfp
	.type	rmnet_sdio_notify_complete, %function
rmnet_sdio_notify_complete:
	.fnstart
	@ args = 0, pretend = 0, frame = 0
	@ frame_needed = 0, uses_anonymous_args = 0
	strd	r4, [sp, #-24]!
	.save {r4, r5, r6, r7, r8, lr}
	strd	r6, [sp, #8]
	str	r8, [sp, #16]
	str	lr, [sp, #20]
	ldr	r4, [r1, #32]
	ldr	r2, [r1, #44]
	ldr	r7, [r4, #84]
	cmn	r2, #104
	beq	.L614
	cmp	r2, #0
	mov	r5, r1
	beq	.L615
	cmn	r2, #108
	beq	.L614
	ldr	r0, [r7]
	movw	r1, #:lower16:.LC2
	movt	r1, #:upper16:.LC2
	add	r0, r0, #32
	bl	dev_err
.L615:
	ldr	r3, [r4, #324]
	tst	r3, #2
	beq	.L612
	add	r6, r4, #196
	.syntax divided
@ 99 "/home/Jprimero15/hlte/lolz/arch/arm/include/asm/atomic.h" 1
	dmb
@ 0 "" 2
@ 101 "/home/Jprimero15/hlte/lolz/arch/arm/include/asm/atomic.h" 1
	@ atomic_sub_return
1:	ldrex	r3, [r6]
	sub	r3, r3, #1
	strex	r2, r3, [r6]
	teq	r2, #0
	bne	1b
@ 0 "" 2
@ 111 "/home/Jprimero15/hlte/lolz/arch/arm/include/asm/atomic.h" 1
	dmb
@ 0 "" 2
	.arm
	.syntax unified
	cmp	r3, #0
	beq	.L612
	ldr	r0, [r4, #96]
	mov	r2, #32
	mov	r1, r5
	ldr	r3, [r0, #8]
	ldr	r3, [r3, #16]
	blx	r3
	subs	r2, r0, #0
	bne	.L636
.L612:
	ldrd	r4, [sp]
	ldrd	r6, [sp, #8]
	ldr	r8, [sp, #16]
	add	sp, sp, #20
	ldr	pc, [sp], #4
.L614:
	mov	r3, #0
	str	r3, [r4, #196]
	b	.L612
.L636:
	.syntax divided
@ 83 "/home/Jprimero15/hlte/lolz/arch/arm/include/asm/atomic.h" 1
	@ atomic_sub
1:	ldrex	r3, [r6]
	sub	r3, r3, #1
	strex	r1, r3, [r6]
	teq	r1, #0
	bne	1b
@ 0 "" 2
	.arm
	.syntax unified
	ldr	r0, [r7]
	movw	r1, #:lower16:.LC3
	ldrd	r4, [sp]
	movt	r1, #:upper16:.LC3
	ldrd	r6, [sp, #8]
	ldr	r8, [sp, #16]
	ldr	lr, [sp, #20]
	add	r0, r0, #32
	add	sp, sp, #24
	b	dev_err
	.fnend
	.size	rmnet_sdio_notify_complete, .-rmnet_sdio_notify_complete
	.align	2
	.syntax unified
	.arm
	.fpu softvfp
	.type	ecm_setup, %function
ecm_setup:
	.fnstart
	@ args = 0, pretend = 0, frame = 0
	@ frame_needed = 0, uses_anonymous_args = 0
	strd	r4, [sp, #-16]!
	.save {r4, r5, r6, lr}
	movw	r3, #17185
	str	r6, [sp, #8]
	str	lr, [sp, #12]
	ldr	ip, [r0, #20]
	.pad #8
	sub	sp, sp, #8
	ldrh	r2, [r1]	@ unaligned
	ldrh	lr, [r1, #4]	@ unaligned
	ldrh	r6, [r1, #2]	@ unaligned
	ldr	r5, [ip, #24]
	cmp	r2, r3
	ldrh	ip, [r1, #6]	@ unaligned
	ldr	r3, [r5, #4]
	bne	.L642
	cmp	ip, #0
	bne	.L642
	ldrb	r2, [r0, #148]	@ zero_extendqisi2
	cmp	r2, lr
	bne	.L642
	strh	r6, [r0, #98]	@ movhi
	ldrb	r0, [r3, #26]	@ zero_extendqisi2
	mov	r4, r1
	str	ip, [r3, #4]
	mov	r1, r3
	mov	r2, #32
	bfi	r0, ip, #1, #1
	strb	r0, [r3, #26]
	ldr	r3, [r5]
	ldr	r0, [r3, #4]
	ldr	r3, [r0, #8]
	ldr	r3, [r3, #16]
	blx	r3
	subs	r6, r0, #0
	blt	.L645
.L637:
	mov	r0, r6
	add	sp, sp, #8
	@ sp needed
	ldrd	r4, [sp]
	ldr	r6, [sp, #8]
	add	sp, sp, #12
	ldr	pc, [sp], #4
.L645:
	ldr	r0, [r5]
	movw	r1, #:lower16:.LC4
	str	r6, [sp]
	movt	r1, #:upper16:.LC4
	ldrb	r3, [r4, #1]	@ zero_extendqisi2
	ldrb	r2, [r4]	@ zero_extendqisi2
	add	r0, r0, #32
	bl	dev_err
	b	.L637
.L642:
	mvn	r6, #94
	b	.L637
	.fnend
	.size	ecm_setup, .-ecm_setup
	.align	2
	.syntax unified
	.arm
	.fpu softvfp
	.type	rmnet_mux_notify_complete, %function
rmnet_mux_notify_complete:
	.fnstart
	@ args = 0, pretend = 0, frame = 0
	@ frame_needed = 0, uses_anonymous_args = 0
	strd	r4, [sp, #-24]!
	.save {r4, r5, r6, r7, r8, lr}
	strd	r6, [sp, #8]
	str	r8, [sp, #16]
	str	lr, [sp, #20]
	ldr	r4, [r1, #32]
	ldr	r2, [r1, #44]
	ldr	r7, [r4, #84]
	cmn	r2, #104
	beq	.L648
	cmp	r2, #0
	mov	r5, r1
	beq	.L649
	cmn	r2, #108
	beq	.L648
	ldr	r0, [r7]
	movw	r1, #:lower16:.LC5
	movt	r1, #:upper16:.LC5
	add	r0, r0, #32
	bl	dev_err
.L649:
	add	r6, r4, #376
	.syntax divided
@ 99 "/home/Jprimero15/hlte/lolz/arch/arm/include/asm/atomic.h" 1
	dmb
@ 0 "" 2
@ 101 "/home/Jprimero15/hlte/lolz/arch/arm/include/asm/atomic.h" 1
	@ atomic_sub_return
1:	ldrex	r3, [r6]
	sub	r3, r3, #1
	strex	r2, r3, [r6]
	teq	r2, #0
	bne	1b
@ 0 "" 2
@ 111 "/home/Jprimero15/hlte/lolz/arch/arm/include/asm/atomic.h" 1
	dmb
@ 0 "" 2
	.arm
	.syntax unified
	cmp	r3, #0
	beq	.L646
	ldr	r0, [r4, #96]
	mov	r2, #32
	mov	r1, r5
	ldr	r3, [r0, #8]
	ldr	r3, [r3, #16]
	blx	r3
	subs	r2, r0, #0
	bne	.L667
.L646:
	ldrd	r4, [sp]
	ldrd	r6, [sp, #8]
	ldr	r8, [sp, #16]
	add	sp, sp, #20
	ldr	pc, [sp], #4
.L667:
	.syntax divided
@ 83 "/home/Jprimero15/hlte/lolz/arch/arm/include/asm/atomic.h" 1
	@ atomic_sub
1:	ldrex	r3, [r6]
	sub	r3, r3, #1
	strex	r1, r3, [r6]
	teq	r1, #0
	bne	1b
@ 0 "" 2
	.arm
	.syntax unified
	ldr	r0, [r7]
	movw	r1, #:lower16:.LC3
	ldrd	r4, [sp]
	movt	r1, #:upper16:.LC3
	ldrd	r6, [sp, #8]
	ldr	r8, [sp, #16]
	ldr	lr, [sp, #20]
	add	r0, r0, #32
	add	sp, sp, #24
	b	dev_err
.L648:
	mov	r3, #0
	str	r3, [r4, #376]
	b	.L646
	.fnend
	.size	rmnet_mux_notify_complete, .-rmnet_mux_notify_complete
	.align	2
	.syntax unified
	.arm
	.fpu softvfp
	.type	composite_suspend, %function
composite_suspend:
	.fnstart
	@ args = 0, pretend = 0, frame = 0
	@ frame_needed = 0, uses_anonymous_args = 0
	strd	r4, [sp, #-16]!
	.save {r4, r5, r6, lr}
	str	r6, [sp, #8]
	mov	r6, r0
	add	r0, r0, #32
	str	lr, [sp, #12]
	bl	dev_get_drvdata
	ldr	r2, [r0, #12]
	mov	r5, r0
	cmp	r2, #0
	beq	.L669
	mov	r3, r2
	ldr	r4, [r3, #36]!
	cmp	r4, r3
	sub	r4, r4, #72
	beq	.L669
.L671:
	ldr	r3, [r4, #56]
	mov	r0, r4
	cmp	r3, #0
	beq	.L670
	blx	r3
	ldr	r2, [r5, #12]
.L670:
	ldr	r4, [r4, #72]
	add	r3, r2, #36
	cmp	r4, r3
	sub	r4, r4, #72
	bne	.L671
.L669:
	movw	r3, #:lower16:.LANCHOR1
	movt	r3, #:upper16:.LANCHOR1
	ldr	r3, [r3, #2236]
	ldr	r3, [r3, #36]
	cmp	r3, #0
	beq	.L672
	mov	r0, r5
	blx	r3
.L672:
	ldrb	r3, [r5, #16]	@ zero_extendqisi2
	orr	r3, r3, #1
	strb	r3, [r5, #16]
	ldr	r3, [r6]
	ldr	r3, [r3, #16]
	cmp	r3, #0
	beq	.L668
	mov	r0, r6
	ldrd	r4, [sp]
	mov	r1, #2
	ldr	r6, [sp, #8]
	ldr	lr, [sp, #12]
	add	sp, sp, #16
	bx	r3
.L668:
	ldrd	r4, [sp]
	ldr	r6, [sp, #8]
	add	sp, sp, #12
	ldr	pc, [sp], #4
	.fnend
	.size	composite_suspend, .-composite_suspend
	.align	2
	.syntax unified
	.arm
	.fpu softvfp
	.type	composite_resume, %function
composite_resume:
	.fnstart
	@ args = 0, pretend = 0, frame = 0
	@ frame_needed = 0, uses_anonymous_args = 0
	strd	r4, [sp, #-16]!
	.save {r4, r5, r6, lr}
	str	r6, [sp, #8]
	mov	r6, r0
	add	r0, r0, #32
	str	lr, [sp, #12]
	bl	dev_get_drvdata
	movw	r3, #:lower16:.LANCHOR1
	mov	r5, r0
	movt	r3, #:upper16:.LANCHOR1
	ldr	r3, [r3, #2236]
	ldr	r3, [r3, #40]
	cmp	r3, #0
	beq	.L686
	blx	r3
.L686:
	ldr	r2, [r5, #12]
	cmp	r2, #0
	beq	.L688
	mov	r3, r2
	ldr	r4, [r3, #36]!
	cmp	r3, r4
	sub	r4, r4, #72
	beq	.L689
.L691:
	ldr	r3, [r4, #60]
	mov	r0, r4
	cmp	r3, #0
	beq	.L690
	blx	r3
	ldr	r2, [r5, #12]
.L690:
	ldr	r4, [r4, #72]
	add	r3, r2, #36
	cmp	r4, r3
	sub	r4, r4, #72
	bne	.L691
.L689:
	ldrb	r3, [r2, #23]	@ zero_extendqisi2
	cmp	r3, #0
	ldrne	r1, [r5, #64]
	moveq	r1, #500
	mulne	r1, r1, r3
	ldr	r3, [r6]
	ldr	r3, [r3, #16]
	cmp	r3, #0
	beq	.L688
	mov	r0, r6
	blx	r3
.L688:
	ldrb	r3, [r5, #16]	@ zero_extendqisi2
	bfc	r3, #0, #1
	strb	r3, [r5, #16]
	ldrd	r4, [sp]
	ldr	r6, [sp, #8]
	add	sp, sp, #12
	ldr	pc, [sp], #4
	.fnend
	.size	composite_resume, .-composite_resume
	.align	2
	.syntax unified
	.arm
	.fpu softvfp
	.type	rndis_ethaddr_store, %function
rndis_ethaddr_store:
	.fnstart
	@ args = 0, pretend = 0, frame = 0
	@ frame_needed = 0, uses_anonymous_args = 0
	strd	r4, [sp, #-16]!
	.save {r4, r5, r6, lr}
	mov	r4, r3
	movw	r5, #52429
	str	r6, [sp, #8]
	movt	r5, 52428
	str	lr, [sp, #12]
	bl	dev_get_drvdata
	ldr	ip, [r0, #4]
	mov	r2, #0
	mov	r0, #2
	mov	r1, r2
	ldr	r3, .L713
	str	r0, [ip]
	strh	r2, [ip, #4]	@ movhi
	b	.L707
.L708:
	sub	r2, r1, r2
	add	r1, r1, #1
	add	r2, r2, #1
	cmp	r1, #256
	ldrb	lr, [ip, r2]	@ zero_extendqisi2
	eor	r0, r0, lr
	strb	r0, [ip, r2]
	beq	.L711
.L707:
	umull	r0, r2, r5, r1
	ldrb	r0, [r3], #1	@ zero_extendqisi2
	lsr	r2, r2, #2
	cmp	r0, #0
	add	r2, r2, r2, lsl #2
	bne	.L708
.L711:
	mov	r0, r4
	ldrd	r4, [sp]
	ldr	r6, [sp, #8]
	add	sp, sp, #12
	ldr	pc, [sp], #4
.L714:
	.align	2
.L713:
	.word	.LANCHOR1+2240
	.fnend
	.size	rndis_ethaddr_store, .-rndis_ethaddr_store
	.align	2
	.syntax unified
	.arm
	.fpu softvfp
	.type	free_reqs, %function
free_reqs:
	.fnstart
	@ args = 0, pretend = 0, frame = 0
	@ frame_needed = 0, uses_anonymous_args = 0
	strd	r4, [sp, #-24]!
	.save {r4, r5, r6, r7, r8, lr}
	strd	r6, [sp, #8]
	mov	r7, r0
	mov	r6, r0
	str	r8, [sp, #16]
	str	lr, [sp, #20]
	ldr	r4, [r7, #100]!
	cmp	r4, r7
	ldr	r5, [r4]
	bne	.L717
	b	.L716
.L720:
	mov	r5, r3
.L717:
	mov	r0, r4
	sub	r4, r4, #36
	bl	list_del
	ldr	r0, [r6, #88]
	mov	r1, r4
	mov	r4, r5
	ldr	r3, [r0, #8]
	ldr	r3, [r3, #12]
	blx	r3
	cmp	r7, r5
	ldr	r3, [r5]
	bne	.L720
.L716:
	mov	r7, r6
	ldr	r4, [r7, #92]!
	cmp	r4, r7
	ldr	r5, [r4]
	bne	.L719
	b	.L715
.L721:
	mov	r5, r3
.L719:
	mov	r0, r4
	sub	r4, r4, #36
	bl	list_del
	ldr	r0, [r6, #84]
	mov	r1, r4
	mov	r4, r5
	ldr	r3, [r0, #8]
	ldr	r3, [r3, #12]
	blx	r3
	cmp	r7, r5
	ldr	r3, [r5]
	bne	.L721
.L715:
	ldrd	r4, [sp]
	ldrd	r6, [sp, #8]
	ldr	r8, [sp, #16]
	add	sp, sp, #20
	ldr	pc, [sp], #4
	.fnend
	.size	free_reqs, .-free_reqs
	.align	2
	.syntax unified
	.arm
	.fpu softvfp
	.type	diag_function_unbind, %function
diag_function_unbind:
	.fnstart
	@ args = 0, pretend = 0, frame = 0
	@ frame_needed = 0, uses_anonymous_args = 0
	strd	r4, [sp, #-16]!
	.save {r4, r5, r6, lr}
	mov	r4, r1
	str	r6, [sp, #8]
	str	lr, [sp, #12]
	ldr	r3, [r0, #24]
	ldr	r3, [r3]
	ldr	r3, [r3, #20]
	cmp	r3, #4
	bhi	.L731
	cmp	r3, #2
	bhi	.L732
.L725:
	ldr	r0, [r4, #16]
	bl	kfree
	ldr	r3, [r4, #124]
	cmp	r3, #0
	beq	.L726
	ldr	r2, [r3, #20]
	cmp	r2, r4
	moveq	r2, #0
	streq	r2, [r3, #20]
.L726:
	add	r0, r4, #140
	add	r5, r4, #108
	bl	list_del
	mov	r0, r5
	bl	_raw_spin_lock_irqsave
	mov	r6, r0
	mov	r0, r4
	bl	free_reqs
	mov	r0, r5
	mov	r1, r6
	bl	_raw_spin_unlock_irqrestore
	ldr	r6, [sp, #8]
	mov	r0, r4
	ldrd	r4, [sp]
	ldr	lr, [sp, #12]
	add	sp, sp, #16
	b	kfree
.L731:
	mov	r5, r0
	ldr	r0, [r1, #12]
	bl	kfree
	ldr	r3, [r5, #24]
	ldr	r3, [r3]
	ldr	r3, [r3, #20]
	cmp	r3, #2
	bls	.L725
.L732:
	ldr	r0, [r4, #8]
	bl	kfree
	b	.L725
	.fnend
	.size	diag_function_unbind, .-diag_function_unbind
	.align	2
	.syntax unified
	.arm
	.fpu softvfp
	.type	rmnet_smd_free_buf, %function
rmnet_smd_free_buf:
	.fnstart
	@ args = 0, pretend = 0, frame = 0
	@ frame_needed = 0, uses_anonymous_args = 0
	mov	r3, #0
	strd	r4, [sp, #-32]!
	.save {r4, r5, r6, r7, r8, r9, r10, lr}
	strd	r6, [sp, #8]
	mov	r6, r0
	strd	r8, [sp, #16]
	mov	r8, r0
	str	r10, [sp, #24]
	str	lr, [sp, #28]
	str	r3, [r0, #424]
	str	r3, [r0, #428]
	str	r3, [r0, #432]
	str	r3, [r0, #436]
	str	r3, [r0, #440]
	str	r3, [r0, #444]
	str	r3, [r0, #448]
	str	r3, [r0, #452]
	ldr	r4, [r8, #140]!
	cmp	r4, r8
	ldr	r5, [r4]
	beq	.L734
.L735:
	mov	r0, r4
	sub	r9, r4, #36
	bl	list_del
	ldr	r7, [r6, #88]
	ldr	r0, [r4, #-36]
	mov	r4, r5
	bl	kfree
	mov	r1, r9
	ldr	r3, [r7, #8]
	mov	r0, r7
	ldr	r3, [r3, #12]
	blx	r3
	cmp	r8, r5
	ldr	r5, [r5]
	bne	.L735
.L734:
	mov	r8, r6
	ldr	r4, [r8, #148]!
	cmp	r4, r8
	ldr	r5, [r4]
	beq	.L736
.L737:
	mov	r0, r4
	sub	r9, r4, #36
	bl	list_del
	ldr	r7, [r6, #92]
	ldr	r0, [r4, #-36]
	mov	r4, r5
	bl	kfree
	mov	r1, r9
	ldr	r3, [r7, #8]
	mov	r0, r7
	ldr	r3, [r3, #12]
	blx	r3
	cmp	r8, r5
	ldr	r5, [r5]
	bne	.L737
.L736:
	mov	r8, r6
	ldr	r4, [r8, #108]!
	cmp	r4, r8
	ldr	r5, [r4]
	beq	.L738
.L739:
	mov	r0, r4
	sub	r7, r4, #8
	bl	list_del
	ldr	r0, [r4, #-8]
	mov	r4, r5
	bl	kfree
	mov	r0, r7
	bl	kfree
	cmp	r8, r5
	ldr	r5, [r5]
	bne	.L739
.L738:
	mov	r8, r6
	ldr	r4, [r8, #116]!
	cmp	r4, r8
	ldr	r5, [r4]
	beq	.L740
.L741:
	mov	r0, r4
	sub	r7, r4, #8
	bl	list_del
	ldr	r0, [r4, #-8]
	mov	r4, r5
	bl	kfree
	mov	r0, r7
	bl	kfree
	cmp	r8, r5
	ldr	r5, [r5]
	bne	.L741
.L740:
	ldrd	r4, [r6, #96]
	ldr	r0, [r5]
	bl	kfree
	ldr	r3, [r4, #8]
	mov	r1, r5
	mov	r0, r4
	ldrd	r4, [sp]
	ldrd	r6, [sp, #8]
	ldrd	r8, [sp, #16]
	ldr	r10, [sp, #24]
	ldr	lr, [sp, #28]
	add	sp, sp, #32
	ldr	r3, [r3, #12]
	bx	r3	@ indirect register sibling call
	.fnend
	.size	rmnet_smd_free_buf, .-rmnet_smd_free_buf
	.align	2
	.syntax unified
	.arm
	.fpu softvfp
	.type	rmnet_sdio_control_rx_work, %function
rmnet_sdio_control_rx_work:
	.fnstart
	@ args = 0, pretend = 0, frame = 0
	@ frame_needed = 0, uses_anonymous_args = 0
	strd	r4, [sp, #-32]!
	.save {r4, r5, r6, r7, r8, r9, r10, lr}
	mov	r5, r0
	strd	r6, [sp, #8]
	sub	r6, r0, #32
	strd	r8, [sp, #16]
	sub	r8, r0, #112
	str	r10, [sp, #24]
	str	lr, [sp, #28]
	ldr	r9, [r0, #-136]
	b	.L750
.L753:
	bl	list_del
	ldr	r3, [r5, #-104]
	mov	r1, r10
	mov	r0, r6
	sub	r3, r3, #1
	str	r3, [r5, #-104]
	bl	_raw_spin_unlock_irqrestore
	ldr	r3, [r4, #-4]
	cmn	r3, #19
	bne	.L752
	ldr	r3, [r5, #152]
	add	r3, r3, #1
	str	r3, [r5, #152]
	ldr	r0, [r4, #-8]
	bl	kfree
	mov	r0, r7
	bl	kfree
.L750:
	mov	r0, r6
	bl	_raw_spin_lock_irqsave
	ldr	r4, [r5, #-112]
	mov	r10, r0
	cmp	r4, r8
	mov	r0, r4
	sub	r7, r4, #8
	bne	.L753
.L748:
	mov	r1, r10
	mov	r0, r6
	ldrd	r4, [sp]
	ldrd	r6, [sp, #8]
	ldrd	r8, [sp, #16]
	ldr	r10, [sp, #24]
	ldr	lr, [sp, #28]
	add	sp, sp, #32
	b	_raw_spin_unlock_irqrestore
.L752:
	ldr	r0, [r9]
	movw	r1, #:lower16:.LC6
	ldrd	r4, [sp]
	movt	r1, #:upper16:.LC6
	ldrd	r6, [sp, #8]
	ldrd	r8, [sp, #16]
	ldr	r10, [sp, #24]
	add	r0, r0, #32
	ldr	lr, [sp, #28]
	add	sp, sp, #32
	b	dev_err
	.fnend
	.size	rmnet_sdio_control_rx_work, .-rmnet_sdio_control_rx_work
	.align	2
	.syntax unified
	.arm
	.fpu softvfp
	.type	audio_req_get, %function
audio_req_get:
	.fnstart
	@ args = 0, pretend = 0, frame = 0
	@ frame_needed = 0, uses_anonymous_args = 0
	strd	r4, [sp, #-16]!
	.save {r4, r5, r6, lr}
	add	r5, r0, #108
	mov	r4, r0
	mov	r0, r5
	str	r6, [sp, #8]
	str	lr, [sp, #12]
	bl	_raw_spin_lock_irqsave
	mov	r6, r0
	mov	r0, r4
	ldr	r4, [r0, #96]!
	cmp	r4, r0
	beq	.L756
	mov	r0, r4
	sub	r4, r4, #36
	bl	list_del
.L755:
	mov	r0, r5
	mov	r1, r6
	bl	_raw_spin_unlock_irqrestore
	ldr	r6, [sp, #8]
	mov	r0, r4
	ldrd	r4, [sp]
	add	sp, sp, #12
	ldr	pc, [sp], #4
.L756:
	mov	r4, #0
	b	.L755
	.fnend
	.size	audio_req_get, .-audio_req_get
	.align	2
	.syntax unified
	.arm
	.fpu softvfp
	.type	gbam_free_requests, %function
gbam_free_requests:
	.fnstart
	@ args = 0, pretend = 0, frame = 0
	@ frame_needed = 0, uses_anonymous_args = 0
	strd	r4, [sp, #-16]!
	.save {r4, r5, r6, lr}
	str	r6, [sp, #8]
	str	lr, [sp, #12]
	ldr	r4, [r1]
	cmp	r1, r4
	beq	.L758
	mov	r5, r1
	mov	r6, r0
.L760:
	mov	r0, r4
	sub	r4, r4, #36
	bl	list_del
	ldr	r3, [r6, #8]
	mov	r1, r4
	mov	r0, r6
	ldr	r3, [r3, #12]
	blx	r3
	ldr	r4, [r5]
	cmp	r5, r4
	bne	.L760
.L758:
	ldrd	r4, [sp]
	ldr	r6, [sp, #8]
	add	sp, sp, #12
	ldr	pc, [sp], #4
	.fnend
	.size	gbam_free_requests, .-gbam_free_requests
	.set	ghsuart_data_free_requests,gbam_free_requests
	.set	ghsic_data_free_requests,gbam_free_requests
	.align	2
	.syntax unified
	.arm
	.fpu softvfp
	.type	req_get, %function
req_get:
	.fnstart
	@ args = 0, pretend = 0, frame = 0
	@ frame_needed = 0, uses_anonymous_args = 0
	strd	r4, [sp, #-16]!
	.save {r4, r5, r6, lr}
	add	r5, r0, #88
	mov	r4, r1
	mov	r0, r5
	str	r6, [sp, #8]
	str	lr, [sp, #12]
	bl	_raw_spin_lock_irqsave
	ldr	r3, [r4]
	mov	r6, r0
	cmp	r4, r3
	beq	.L765
	mov	r0, r3
	sub	r4, r3, #36
	bl	list_del
.L764:
	mov	r0, r5
	mov	r1, r6
	bl	_raw_spin_unlock_irqrestore
	ldr	r6, [sp, #8]
	mov	r0, r4
	ldrd	r4, [sp]
	add	sp, sp, #12
	ldr	pc, [sp], #4
.L765:
	mov	r4, #0
	b	.L764
	.fnend
	.size	req_get, .-req_get
	.align	2
	.syntax unified
	.arm
	.fpu softvfp
	.type	mtp_req_get, %function
mtp_req_get:
	.fnstart
	@ args = 0, pretend = 0, frame = 0
	@ frame_needed = 0, uses_anonymous_args = 0
	strd	r4, [sp, #-16]!
	.save {r4, r5, r6, lr}
	add	r5, r0, #88
	mov	r4, r1
	mov	r0, r5
	str	r6, [sp, #8]
	str	lr, [sp, #12]
	bl	_raw_spin_lock_irqsave
	ldr	r3, [r4]
	mov	r6, r0
	cmp	r4, r3
	beq	.L769
	mov	r0, r3
	sub	r4, r3, #36
	bl	list_del
.L768:
	mov	r0, r5
	mov	r1, r6
	bl	_raw_spin_unlock_irqrestore
	ldr	r6, [sp, #8]
	mov	r0, r4
	ldrd	r4, [sp]
	add	sp, sp, #12
	ldr	pc, [sp], #4
.L769:
	mov	r4, #0
	b	.L768
	.fnend
	.size	mtp_req_get, .-mtp_req_get
	.align	2
	.syntax unified
	.arm
	.fpu softvfp
	.type	ccid_req_get, %function
ccid_req_get:
	.fnstart
	@ args = 0, pretend = 0, frame = 0
	@ frame_needed = 0, uses_anonymous_args = 0
	strd	r4, [sp, #-16]!
	.save {r4, r5, r6, lr}
	add	r5, r0, #92
	mov	r4, r1
	mov	r0, r5
	str	r6, [sp, #8]
	str	lr, [sp, #12]
	bl	_raw_spin_lock_irqsave
	ldr	r3, [r4]
	mov	r6, r0
	cmp	r4, r3
	beq	.L773
	mov	r0, r3
	sub	r4, r3, #36
	bl	list_del
.L772:
	mov	r0, r5
	mov	r1, r6
	bl	_raw_spin_unlock_irqrestore
	ldr	r6, [sp, #8]
	mov	r0, r4
	ldrd	r4, [sp]
	add	sp, sp, #12
	ldr	pc, [sp], #4
.L773:
	mov	r4, #0
	b	.L772
	.fnend
	.size	ccid_req_get, .-ccid_req_get
	.align	2
	.syntax unified
	.arm
	.fpu softvfp
	.type	frmnet_purge_responses, %function
frmnet_purge_responses:
	.fnstart
	@ args = 0, pretend = 0, frame = 0
	@ frame_needed = 0, uses_anonymous_args = 0
	strd	r4, [sp, #-32]!
	.save {r4, r5, r6, r7, r8, r9, r10, lr}
	strd	r6, [sp, #8]
	mov	r6, r0
	add	r7, r0, #144
	strd	r8, [sp, #16]
	add	r8, r0, #132
	mov	r0, r8
	str	r10, [sp, #24]
	str	lr, [sp, #28]
	bl	_raw_spin_lock_irqsave
	ldr	r4, [r6, #144]
	mov	r9, r0
	cmp	r7, r4
	beq	.L776
.L777:
	mov	r0, r4
	sub	r5, r4, #8
	bl	list_del
	ldr	r0, [r4, #-8]
	bl	kfree
	mov	r0, r5
	bl	kfree
	ldr	r4, [r6, #144]
	cmp	r4, r7
	bne	.L777
.L776:
	mov	r3, #0
	mov	r1, r9
	mov	r0, r8
	str	r3, [r6, #152]
	ldrd	r4, [sp]
	ldrd	r6, [sp, #8]
	ldrd	r8, [sp, #16]
	ldr	r10, [sp, #24]
	ldr	lr, [sp, #28]
	add	sp, sp, #32
	b	_raw_spin_unlock_irqrestore
	.fnend
	.size	frmnet_purge_responses, .-frmnet_purge_responses
	.align	2
	.syntax unified
	.arm
	.fpu softvfp
	.type	frmnet_ctrl_response_available, %function
frmnet_ctrl_response_available:
	.fnstart
	@ args = 0, pretend = 0, frame = 0
	@ frame_needed = 0, uses_anonymous_args = 0
	strd	r4, [sp, #-24]!
	.save {r4, r5, r6, r7, r8, lr}
	add	r5, r0, #132
	mov	r4, r0
	strd	r6, [sp, #8]
	str	r8, [sp, #16]
	str	lr, [sp, #20]
	ldr	r6, [r0, #140]
	mov	r0, r5
	bl	_raw_spin_lock_irqsave
	ldr	r3, [r4, #120]
	cmp	r6, #0
	clz	r3, r3
	lsr	r3, r3, #5
	moveq	r3, #1
	cmp	r3, #0
	bne	.L789
	ldr	r2, [r6]
	cmp	r2, #0
	beq	.L789
	ldr	r2, [r4, #152]
	add	r2, r2, #1
	cmp	r2, #1
	str	r2, [r4, #152]
	beq	.L783
.L789:
	mov	r1, r0
.L788:
	mov	r0, r5
	ldrd	r4, [sp]
	ldrd	r6, [sp, #8]
	ldr	r8, [sp, #16]
	ldr	lr, [sp, #20]
	add	sp, sp, #24
	b	_raw_spin_unlock_irqrestore
.L783:
	ldr	ip, [r6]
	mvn	lr, #94
	mov	r1, r0
	mov	r0, r5
	strb	lr, [ip]
	strb	r2, [ip, #1]
	strb	r3, [ip, #2]
	strb	r3, [ip, #3]
	ldrh	r2, [r4, #112]
	strh	r2, [ip, #4]	@ unaligned
	strb	r3, [ip, #6]
	strb	r3, [ip, #7]
	bl	_raw_spin_unlock_irqrestore
	ldrd	r0, [r4, #136]
	mov	r2, #32
	ldr	r3, [r0, #8]
	ldr	r3, [r3, #16]
	blx	r3
	cmp	r0, #0
	bne	.L790
	ldrd	r4, [sp]
	ldrd	r6, [sp, #8]
	ldr	r8, [sp, #16]
	add	sp, sp, #20
	ldr	pc, [sp], #4
.L790:
	mov	r0, r5
	bl	_raw_spin_lock_irqsave
	mov	r3, r4
	mov	r7, r0
	ldr	r6, [r3, #144]!
	cmp	r6, r3
	beq	.L785
	ldr	r3, [r4, #152]
	cmp	r3, #0
	beq	.L785
	sub	r3, r3, #1
	mov	r0, r6
	str	r3, [r4, #152]
	sub	r4, r6, #8
	bl	list_del
	ldr	r0, [r6, #-8]
	bl	kfree
	mov	r0, r4
	bl	kfree
.L785:
	mov	r1, r7
	b	.L788
	.fnend
	.size	frmnet_ctrl_response_available, .-frmnet_ctrl_response_available
	.align	2
	.syntax unified
	.arm
	.fpu softvfp
	.type	rmnet_mux_setup, %function
rmnet_mux_setup:
	.fnstart
	@ args = 0, pretend = 0, frame = 0
	@ frame_needed = 0, uses_anonymous_args = 0
	strd	r4, [sp, #-32]!
	.save {r4, r5, r6, r7, r8, r9, r10, lr}
	strd	r6, [sp, #8]
	strd	r8, [sp, #16]
	str	r10, [sp, #24]
	str	lr, [sp, #28]
	ldr	r2, [r0, #20]
	ldr	r3, [r0, #372]
	ldrh	r8, [r1, #2]	@ unaligned
	ldrh	r6, [r1, #6]	@ unaligned
	ldr	r7, [r2, #24]
	cmp	r3, #0
	ldr	r5, [r7, #4]
	beq	.L799
	ldrh	r3, [r1]	@ unaligned
	movw	r2, #8482
	mov	r4, r0
	rev16	r3, r3
	uxth	r3, r3
	cmp	r3, r2
	beq	.L793
	movw	r2, #41217
	cmp	r3, r2
	beq	.L794
	cmp	r3, #8448
	beq	.L804
.L801:
	mvn	r4, #94
.L791:
	mov	r0, r4
	ldrd	r4, [sp]
	ldrd	r6, [sp, #8]
	ldrd	r8, [sp, #16]
	ldr	r10, [sp, #24]
	add	sp, sp, #28
	ldr	pc, [sp], #4
.L794:
	cmp	r8, #0
	bne	.L801
	add	r8, r0, #368
	mov	r0, r8
	bl	_raw_spin_lock
	mov	r3, r4
	ldr	r9, [r3, #340]!
	cmp	r9, r3
	beq	.L805
	mov	r0, r9
	sub	r10, r9, #8
	bl	list_del
	ldr	r3, [r4, #348]
	mov	r0, r8
	sub	r3, r3, #1
	str	r3, [r4, #348]
	bl	_raw_spin_unlock
	ldmdb	r9, {r1, r8}
	ldr	r0, [r5]
	cmp	r6, r8
	movcc	r8, r6
	mov	r2, r8
	bl	memcpy
	movw	r3, #:lower16:rmnet_mux_response_complete
	str	r4, [r5, #32]
	movt	r3, #:upper16:rmnet_mux_response_complete
	str	r3, [r5, #28]
	ldr	r0, [r9, #-8]
	bl	kfree
	mov	r0, r10
	bl	kfree
	ldr	r3, [r4, #416]
	cmp	r8, r6
	movge	r6, #0
	movlt	r6, #1
	add	r3, r3, #1
	str	r3, [r4, #416]
.L796:
	ldrb	r3, [r5, #26]	@ zero_extendqisi2
	str	r8, [r5, #4]
	mov	r1, r5
	mov	r2, #32
	bfi	r3, r6, #1, #1
	strb	r3, [r5, #26]
	ldr	r3, [r7]
	ldr	r0, [r3, #4]
	ldr	r3, [r0, #8]
	ldr	r3, [r3, #16]
	blx	r3
	subs	r4, r0, #0
	bge	.L791
	ldr	r0, [r7]
	movw	r1, #:lower16:.LC7
	mov	r2, r4
	movt	r1, #:upper16:.LC7
	add	r0, r0, #32
	bl	dev_err
	b	.L791
.L804:
	movw	r3, #:lower16:rmnet_mux_command_complete
	mov	r8, r6
	str	r0, [r5, #32]
	movt	r3, #:upper16:rmnet_mux_command_complete
	mov	r6, #0
	str	r3, [r5, #28]
	b	.L796
.L793:
	ldr	r3, [r0, #352]
	adds	r6, r6, #0
	movne	r6, #1
	ands	r8, r8, #1
	movne	r8, #0
	orrne	r3, r3, #2
	biceq	r3, r3, #2
	str	r3, [r0, #352]
	b	.L796
.L799:
	mvn	r4, #106
	b	.L791
.L805:
	mov	r0, r8
	mvn	r4, #94
	bl	_raw_spin_unlock
	b	.L791
	.fnend
	.size	rmnet_mux_setup, .-rmnet_mux_setup
	.align	2
	.syntax unified
	.arm
	.fpu softvfp
	.type	gs_free_requests, %function
gs_free_requests:
	.fnstart
	@ args = 0, pretend = 0, frame = 0
	@ frame_needed = 0, uses_anonymous_args = 0
	strd	r4, [sp, #-24]!
	.save {r4, r5, r6, r7, r8, lr}
	mov	r5, r1
	strd	r6, [sp, #8]
	mov	r6, r0
	str	r8, [sp, #16]
	mov	r8, r2
	str	lr, [sp, #20]
	b	.L808
.L809:
	bl	list_del
	ldr	r0, [r4, #-36]
	bl	kfree
	ldr	r3, [r6, #8]
	mov	r1, r7
	mov	r0, r6
	ldr	r3, [r3, #12]
	blx	r3
	cmp	r8, #0
	bne	.L813
.L808:
	ldr	r4, [r5]
	cmp	r5, r4
	mov	r0, r4
	sub	r7, r4, #36
	bne	.L809
	ldrd	r4, [sp]
	ldrd	r6, [sp, #8]
	ldr	r8, [sp, #16]
	add	sp, sp, #20
	ldr	pc, [sp], #4
.L813:
	ldr	r3, [r8]
	sub	r3, r3, #1
	str	r3, [r8]
	b	.L808
	.fnend
	.size	gs_free_requests, .-gs_free_requests
	.align	2
	.syntax unified
	.arm
	.fpu softvfp
	.type	diag_write_complete, %function
diag_write_complete:
	.fnstart
	@ args = 0, pretend = 0, frame = 0
	@ frame_needed = 0, uses_anonymous_args = 0
	strd	r4, [sp, #-24]!
	.save {r4, r5, r6, r7, r8, lr}
	mov	r4, r1
	strd	r6, [sp, #8]
	str	r8, [sp, #16]
	str	lr, [sp, #20]
	ldr	r5, [r0]
	ldr	r6, [r1, #32]
	ldr	r2, [r5, #136]
	sub	ip, r2, #1
	str	ip, [r5, #136]
	ldr	ip, [r1, #44]
	cmp	ip, #0
	bne	.L815
	ldrh	r0, [r0, #20]
	ldr	ip, [r1, #4]
	cmp	ip, r0
	bcc	.L815
	udiv	lr, ip, r0
	mls	r0, r0, lr, ip
	cmp	r0, #0
	bne	.L815
	str	r2, [r5, #136]
	ldr	ip, [r1, #48]
	mov	r2, #32
	str	r0, [r1, #4]
	str	ip, [r6, #8]
	ldr	r3, [r1, #44]
	str	r3, [r6, #12]
	ldr	r0, [r5, #88]
	ldrd	r4, [sp]
	ldrd	r6, [sp, #8]
	ldr	r8, [sp, #16]
	ldr	r3, [r0, #8]
	ldr	lr, [sp, #20]
	add	sp, sp, #24
	ldr	r3, [r3, #16]
	bx	r3
.L815:
	add	r7, r5, #108
	mov	r0, r7
	bl	_raw_spin_lock_irqsave
	mov	r8, r0
	add	r2, r5, #100
	ldr	r1, [r5, #104]
	add	r0, r4, #36
	bl	__list_add
	ldr	r3, [r4, #4]
	cmp	r3, #0
	bne	.L828
.L816:
	mov	r1, r8
	mov	r0, r7
	bl	_raw_spin_unlock_irqrestore
	ldr	r3, [r5, #124]
	cmp	r3, #0
	beq	.L814
	ldr	lr, [r3, #12]
	cmp	lr, #0
	beq	.L814
	mov	r2, r6
	ldr	r0, [r3, #16]
	mov	r1, #2
	ldrd	r4, [sp]
	mov	r3, lr
	ldrd	r6, [sp, #8]
	ldr	r8, [sp, #16]
	ldr	lr, [sp, #20]
	add	sp, sp, #24
	bx	r3	@ indirect register sibling call
.L828:
	ldr	r3, [r4, #48]
	str	r3, [r6, #8]
	ldr	r3, [r4, #44]
	str	r3, [r6, #12]
	b	.L816
.L814:
	ldrd	r4, [sp]
	ldrd	r6, [sp, #8]
	ldr	r8, [sp, #16]
	add	sp, sp, #20
	ldr	pc, [sp], #4
	.fnend
	.size	diag_write_complete, .-diag_write_complete
	.align	2
	.syntax unified
	.arm
	.fpu softvfp
	.type	diag_read_complete, %function
diag_read_complete:
	.fnstart
	@ args = 0, pretend = 0, frame = 0
	@ frame_needed = 0, uses_anonymous_args = 0
	strd	r4, [sp, #-24]!
	.save {r4, r5, r6, r7, r8, lr}
	mov	r5, r1
	strd	r6, [sp, #8]
	str	r8, [sp, #16]
	str	lr, [sp, #20]
	ldr	r6, [r1, #32]
	ldr	r3, [r1, #48]
	ldr	r4, [r0]
	str	r3, [r6, #8]
	ldr	r3, [r1, #44]
	add	r7, r4, #108
	mov	r0, r7
	str	r3, [r6, #12]
	bl	_raw_spin_lock_irqsave
	mov	r8, r0
	add	r2, r4, #92
	ldr	r1, [r4, #96]
	add	r0, r5, #36
	bl	__list_add
	mov	r1, r8
	mov	r0, r7
	bl	_raw_spin_unlock_irqrestore
	ldr	r1, [r4, #124]
	ldr	r3, [r4, #132]
	cmp	r1, #0
	add	r3, r3, #1
	str	r3, [r4, #132]
	beq	.L829
	ldr	r3, [r1, #12]
	cmp	r3, #0
	beq	.L829
	mov	r2, r6
	ldr	r0, [r1, #16]
	mov	r1, #3
	ldrd	r4, [sp]
	ldrd	r6, [sp, #8]
	ldr	r8, [sp, #16]
	ldr	lr, [sp, #20]
	add	sp, sp, #24
	bx	r3	@ indirect register sibling call
.L829:
	ldrd	r4, [sp]
	ldrd	r6, [sp, #8]
	ldr	r8, [sp, #16]
	add	sp, sp, #20
	ldr	pc, [sp], #4
	.fnend
	.size	diag_read_complete, .-diag_read_complete
	.align	2
	.syntax unified
	.arm
	.fpu softvfp
	.type	qdss_ctrl_write_complete, %function
qdss_ctrl_write_complete:
	.fnstart
	@ args = 0, pretend = 0, frame = 0
	@ frame_needed = 0, uses_anonymous_args = 0
	strd	r4, [sp, #-24]!
	.save {r4, r5, r6, r7, r8, lr}
	mov	r4, r1
	strd	r6, [sp, #8]
	str	r8, [sp, #16]
	str	lr, [sp, #20]
	ldr	r5, [r0]
	ldr	r2, [r1, #44]
	ldr	r6, [r1, #32]
	cmp	r2, #0
	bne	.L839
	ldrh	r2, [r0, #20]
	ldr	r0, [r1, #4]
	cmp	r0, r2
	bcc	.L839
	udiv	ip, r0, r2
	mls	r2, r2, ip, r0
	cmp	r2, #0
	bne	.L839
	ldr	r0, [r1, #48]
	str	r2, [r1, #4]
	mov	r2, #32
	str	r0, [r6, #8]
	ldr	r3, [r1, #44]
	str	r3, [r6, #12]
	ldr	r0, [r5, #104]
	ldrd	r4, [sp]
	ldrd	r6, [sp, #8]
	ldr	r8, [sp, #16]
	ldr	r3, [r0, #8]
	ldr	lr, [sp, #20]
	add	sp, sp, #24
	ldr	r3, [r3, #16]
	bx	r3
.L839:
	add	r7, r5, #188
	mov	r0, r7
	bl	_raw_spin_lock_irqsave
	mov	r8, r0
	add	r2, r5, #148
	ldr	r1, [r5, #152]
	add	r0, r4, #36
	bl	__list_add
	ldr	r3, [r4, #4]
	cmp	r3, #0
	bne	.L846
.L840:
	mov	r1, r8
	mov	r0, r7
	bl	_raw_spin_unlock_irqrestore
	ldr	lr, [r5, #124]
	cmp	lr, #0
	beq	.L838
	mov	r2, r6
	mov	ip, lr
	ldr	r0, [r5, #128]
	ldrd	r4, [sp]
	mov	r3, #0
	mov	r1, #4
	ldrd	r6, [sp, #8]
	ldr	r8, [sp, #16]
	ldr	lr, [sp, #20]
	add	sp, sp, #24
	bx	ip	@ indirect register sibling call
.L846:
	ldr	r3, [r4, #48]
	str	r3, [r6, #8]
	ldr	r3, [r4, #44]
	str	r3, [r6, #12]
	b	.L840
.L838:
	ldrd	r4, [sp]
	ldrd	r6, [sp, #8]
	ldr	r8, [sp, #16]
	add	sp, sp, #20
	ldr	pc, [sp], #4
	.fnend
	.size	qdss_ctrl_write_complete, .-qdss_ctrl_write_complete
	.align	2
	.syntax unified
	.arm
	.fpu softvfp
	.type	qdss_ctrl_read_complete, %function
qdss_ctrl_read_complete:
	.fnstart
	@ args = 0, pretend = 0, frame = 0
	@ frame_needed = 0, uses_anonymous_args = 0
	strd	r4, [sp, #-24]!
	.save {r4, r5, r6, r7, r8, lr}
	mov	r5, r1
	strd	r6, [sp, #8]
	str	r8, [sp, #16]
	str	lr, [sp, #20]
	ldr	r6, [r1, #32]
	ldr	r3, [r1, #48]
	ldr	r4, [r0]
	str	r3, [r6, #8]
	ldr	r3, [r1, #44]
	add	r7, r4, #188
	mov	r0, r7
	str	r3, [r6, #12]
	bl	_raw_spin_lock_irqsave
	mov	r8, r0
	add	r2, r4, #140
	ldr	r1, [r4, #144]
	add	r0, r5, #36
	bl	__list_add
	mov	r1, r8
	mov	r0, r7
	bl	_raw_spin_unlock_irqrestore
	ldr	lr, [r4, #124]
	cmp	lr, #0
	beq	.L847
	mov	r2, r6
	mov	ip, lr
	ldr	r0, [r4, #128]
	ldrd	r4, [sp]
	mov	r3, #0
	mov	r1, #2
	ldrd	r6, [sp, #8]
	ldr	r8, [sp, #16]
	ldr	lr, [sp, #20]
	add	sp, sp, #24
	bx	ip	@ indirect register sibling call
.L847:
	ldrd	r4, [sp]
	ldrd	r6, [sp, #8]
	ldr	r8, [sp, #16]
	add	sp, sp, #20
	ldr	pc, [sp], #4
	.fnend
	.size	qdss_ctrl_read_complete, .-qdss_ctrl_read_complete
	.align	2
	.syntax unified
	.arm
	.fpu softvfp
	.type	audio_req_put, %function
audio_req_put:
	.fnstart
	@ args = 0, pretend = 0, frame = 0
	@ frame_needed = 0, uses_anonymous_args = 0
	strd	r4, [sp, #-24]!
	.save {r4, r5, r6, r7, r8, lr}
	add	r5, r0, #108
	mov	r4, r0
	mov	r0, r5
	strd	r6, [sp, #8]
	mov	r7, r1
	str	r8, [sp, #16]
	str	lr, [sp, #20]
	bl	_raw_spin_lock_irqsave
	mov	r6, r0
	ldr	r1, [r4, #100]
	add	r0, r7, #36
	add	r2, r4, #96
	bl	__list_add
	ldr	r8, [sp, #16]
	mov	r1, r6
	mov	r0, r5
	ldrd	r4, [sp]
	ldrd	r6, [sp, #8]
	ldr	lr, [sp, #20]
	add	sp, sp, #24
	b	_raw_spin_unlock_irqrestore
	.fnend
	.size	audio_req_put, .-audio_req_put
	.align	2
	.syntax unified
	.arm
	.fpu softvfp
	.type	ccid_req_put, %function
ccid_req_put:
	.fnstart
	@ args = 0, pretend = 0, frame = 0
	@ frame_needed = 0, uses_anonymous_args = 0
	strd	r4, [sp, #-24]!
	.save {r4, r5, r6, r7, r8, lr}
	add	r4, r0, #92
	mov	r0, r4
	strd	r6, [sp, #8]
	mov	r7, r1
	str	r8, [sp, #16]
	mov	r6, r2
	str	lr, [sp, #20]
	bl	_raw_spin_lock_irqsave
	mov	r5, r0
	ldr	r1, [r7, #4]
	add	r0, r6, #36
	mov	r2, r7
	bl	__list_add
	ldrd	r6, [sp, #8]
	mov	r1, r5
	mov	r0, r4
	ldrd	r4, [sp]
	ldr	r8, [sp, #16]
	ldr	lr, [sp, #20]
	add	sp, sp, #24
	b	_raw_spin_unlock_irqrestore
	.fnend
	.size	ccid_req_put, .-ccid_req_put
	.align	2
	.syntax unified
	.arm
	.fpu softvfp
	.type	mtp_req_put, %function
mtp_req_put:
	.fnstart
	@ args = 0, pretend = 0, frame = 0
	@ frame_needed = 0, uses_anonymous_args = 0
	strd	r4, [sp, #-24]!
	.save {r4, r5, r6, r7, r8, lr}
	add	r4, r0, #88
	mov	r0, r4
	strd	r6, [sp, #8]
	mov	r7, r1
	str	r8, [sp, #16]
	mov	r6, r2
	str	lr, [sp, #20]
	bl	_raw_spin_lock_irqsave
	mov	r5, r0
	ldr	r1, [r7, #4]
	add	r0, r6, #36
	mov	r2, r7
	bl	__list_add
	ldrd	r6, [sp, #8]
	mov	r1, r5
	mov	r0, r4
	ldrd	r4, [sp]
	ldr	r8, [sp, #16]
	ldr	lr, [sp, #20]
	add	sp, sp, #24
	b	_raw_spin_unlock_irqrestore
	.fnend
	.size	mtp_req_put, .-mtp_req_put
	.align	2
	.syntax unified
	.arm
	.fpu softvfp
	.type	req_put, %function
req_put:
	.fnstart
	@ args = 0, pretend = 0, frame = 0
	@ frame_needed = 0, uses_anonymous_args = 0
	strd	r4, [sp, #-24]!
	.save {r4, r5, r6, r7, r8, lr}
	add	r4, r0, #88
	mov	r0, r4
	strd	r6, [sp, #8]
	mov	r7, r1
	str	r8, [sp, #16]
	mov	r6, r2
	str	lr, [sp, #20]
	bl	_raw_spin_lock_irqsave
	mov	r5, r0
	ldr	r1, [r7, #4]
	add	r0, r6, #36
	mov	r2, r7
	bl	__list_add
	ldrd	r6, [sp, #8]
	mov	r1, r5
	mov	r0, r4
	ldrd	r4, [sp]
	ldr	r8, [sp, #16]
	ldr	lr, [sp, #20]
	add	sp, sp, #24
	b	_raw_spin_unlock_irqrestore
	.fnend
	.size	req_put, .-req_put
	.align	2
	.syntax unified
	.arm
	.fpu softvfp
	.type	rmnet_smd_start_rx, %function
rmnet_smd_start_rx:
	.fnstart
	@ args = 0, pretend = 0, frame = 0
	@ frame_needed = 0, uses_anonymous_args = 0
	strd	r4, [sp, #-32]!
	.save {r4, r5, r6, r7, r8, r9, r10, lr}
	mov	r5, r0
	strd	r6, [sp, #8]
	add	r6, r0, #164
	strd	r8, [sp, #16]
	add	r9, r0, #148
	str	r10, [sp, #24]
	str	lr, [sp, #28]
	ldr	r10, [r0, #84]
	mov	r0, r6
	bl	_raw_spin_lock_irqsave
	mov	r7, r0
	b	.L859
.L861:
	bl	list_del
	mov	r1, r7
	mov	r0, r6
	bl	_raw_spin_unlock_irqrestore
	ldr	r0, [r5, #88]
	mov	r1, r8
	mov	r2, #32
	ldr	r3, [r0, #8]
	ldr	r3, [r3, #16]
	blx	r3
	mov	r8, r0
	mov	r0, r6
	bl	_raw_spin_lock_irqsave
	cmp	r8, #0
	mov	r7, r0
	bne	.L865
.L859:
	ldr	r4, [r5, #148]
	cmp	r9, r4
	mov	r0, r4
	sub	r8, r4, #36
	bne	.L861
.L860:
	mov	r1, r7
	mov	r0, r6
	ldrd	r4, [sp]
	ldrd	r6, [sp, #8]
	ldrd	r8, [sp, #16]
	ldr	r10, [sp, #24]
	ldr	lr, [sp, #28]
	add	sp, sp, #32
	b	_raw_spin_unlock_irqrestore
.L865:
	ldr	r0, [r10]
	movw	r1, #:lower16:.LC8
	mov	r2, r8
	movt	r1, #:upper16:.LC8
	add	r0, r0, #32
	bl	dev_err
	mov	r2, r9
	mov	r0, r4
	ldr	r1, [r5, #152]
	bl	__list_add
	b	.L860
	.fnend
	.size	rmnet_smd_start_rx, .-rmnet_smd_start_rx
	.align	2
	.syntax unified
	.arm
	.fpu softvfp
	.type	prealloc, %function
prealloc:
	.fnstart
	@ args = 0, pretend = 0, frame = 0
	@ frame_needed = 0, uses_anonymous_args = 0
	cmp	r2, #0
	beq	.L892
	strd	r4, [sp, #-32]!
	.save {r4, r5, r6, r7, r8, r9, r10, lr}
	sub	r2, r2, #1
	strd	r6, [sp, #8]
	mov	r6, r1
	mov	r7, r0
	strd	r8, [sp, #16]
	str	r10, [sp, #24]
	str	lr, [sp, #28]
	ldr	r4, [r0]
	cmp	r0, r4
	sub	r4, r4, #36
	bne	.L868
	b	.L895
.L871:
	cmn	r5, #1
	mov	r2, r5
	beq	.L870
.L868:
	ldr	r4, [r4, #36]
	sub	r5, r2, #1
	cmp	r7, r4
	sub	r4, r4, #36
	bne	.L871
	ldr	r3, [r6, #28]
	cmp	r2, #0
	ldrb	r4, [r3, #2]	@ zero_extendqisi2
	lsr	r4, r4, #7
	beq	.L872
.L878:
	movw	r9, #:lower16:rx_complete
	movw	r8, #:lower16:tx_complete
	movt	r9, #:upper16:rx_complete
	movt	r8, #:upper16:tx_complete
	b	.L877
.L873:
	cmp	r4, #0
	moveq	r2, r9
	movne	r2, r8
	str	r2, [r3, #28]
	ldr	r2, [r7]
	bl	__list_add
	cmp	r5, #0
	sub	r5, r5, #1
	beq	.L872
.L877:
	ldr	r3, [r6, #8]
	mov	r1, #32
	mov	r0, r6
	ldr	r3, [r3, #8]
	blx	r3
	subs	r3, r0, #0
	mov	r1, r7
	add	r0, r3, #36
	bne	.L873
	ldr	r3, [r7]
	cmp	r7, r3
	beq	.L867
.L872:
	mov	r0, #0
.L866:
	ldrd	r4, [sp]
	ldrd	r6, [sp, #8]
	ldrd	r8, [sp, #16]
	ldr	r10, [sp, #24]
	add	sp, sp, #28
	ldr	pc, [sp], #4
.L870:
	mov	r0, r4
	ldr	r5, [r0, #36]!
	bl	list_del
	ldr	r3, [r6, #8]
	mov	r1, r4
	mov	r0, r6
	sub	r4, r5, #36
	ldr	r3, [r3, #12]
	blx	r3
	cmp	r7, r5
	bne	.L870
	b	.L872
.L895:
	ldr	r3, [r1, #28]
	mov	r5, r2
	ldrb	r4, [r3, #2]	@ zero_extendqisi2
	lsr	r4, r4, #7
	b	.L878
.L867:
	mvn	r0, #11
	b	.L866
.L892:
	mvn	r0, #11
	bx	lr
	.fnend
	.size	prealloc, .-prealloc
	.align	2
	.syntax unified
	.arm
	.fpu softvfp
	.type	rmnet_mux_smd_start_rx, %function
rmnet_mux_smd_start_rx:
	.fnstart
	@ args = 0, pretend = 0, frame = 0
	@ frame_needed = 0, uses_anonymous_args = 0
	strd	r4, [sp, #-32]!
	.save {r4, r5, r6, r7, r8, r9, r10, lr}
	mov	r5, r0
	strd	r6, [sp, #8]
	add	r6, r0, #368
	strd	r8, [sp, #16]
	add	r9, r0, #112
	str	r10, [sp, #24]
	str	lr, [sp, #28]
	ldr	r10, [r0, #84]
	mov	r0, r6
	bl	_raw_spin_lock_irqsave
	mov	r7, r0
	b	.L897
.L899:
	bl	list_del
	mov	r1, r7
	mov	r0, r6
	bl	_raw_spin_unlock_irqrestore
	ldr	r0, [r5, #88]
	mov	r1, r8
	mov	r2, #32
	ldr	r3, [r0, #8]
	ldr	r3, [r3, #16]
	blx	r3
	mov	r8, r0
	mov	r0, r6
	bl	_raw_spin_lock_irqsave
	cmp	r8, #0
	mov	r7, r0
	bne	.L903
.L897:
	ldr	r4, [r5, #112]
	cmp	r9, r4
	mov	r0, r4
	sub	r8, r4, #36
	bne	.L899
.L898:
	mov	r1, r7
	mov	r0, r6
	ldrd	r4, [sp]
	ldrd	r6, [sp, #8]
	ldrd	r8, [sp, #16]
	ldr	r10, [sp, #24]
	ldr	lr, [sp, #28]
	add	sp, sp, #32
	b	_raw_spin_unlock_irqrestore
.L903:
	ldr	r0, [r10]
	movw	r1, #:lower16:.LC8
	mov	r2, r8
	movt	r1, #:upper16:.LC8
	add	r0, r0, #32
	bl	dev_err
	mov	r2, r9
	mov	r0, r4
	ldr	r1, [r5, #116]
	bl	__list_add
	b	.L898
	.fnend
	.size	rmnet_mux_smd_start_rx, .-rmnet_mux_smd_start_rx
	.align	2
	.syntax unified
	.arm
	.fpu softvfp
	.type	gs_start_rx, %function
gs_start_rx:
	.fnstart
	@ args = 0, pretend = 0, frame = 0
	@ frame_needed = 0, uses_anonymous_args = 0
	strd	r4, [sp, #-36]!
	.save {r4, r5, r6, r7, r8, r9, r10, fp, lr}
	strd	r6, [sp, #8]
	strd	r8, [sp, #16]
	add	r8, r0, #32
	strd	r10, [sp, #24]
	str	lr, [sp, #32]
	ldr	r2, [r0, #4]
	.pad #4
	sub	sp, sp, #4
	ldr	r5, [r0, #32]
	ldr	r3, [r0, #40]
	ldr	r6, [r2, #92]
	cmp	r5, r8
	beq	.L905
	ldr	r2, [r0, #8]
	cmp	r2, #0
	beq	.L905
	cmp	r3, #7
	bgt	.L905
	mov	r4, r0
	mov	r9, #4096
	b	.L906
.L907:
	cmp	r10, #0
	ldr	r5, [r4, #32]
	bne	.L917
	ldr	r3, [r4, #40]
	cmp	r8, r5
	add	r3, r3, #1
	str	r3, [r4, #40]
	beq	.L905
	ldr	r2, [r4, #8]
	cmp	r2, #0
	beq	.L905
	cmp	r3, #7
	bgt	.L905
.L906:
	mov	r0, r5
	sub	r7, r5, #36
	bl	list_del
	mov	r0, r4
	str	r9, [r5, #-32]
	mov	fp, r5
	bl	_raw_spin_unlock
	ldr	r3, [r6, #8]
	mov	r1, r7
	mov	r2, #32
	mov	r0, r6
	ldr	r3, [r3, #16]
	blx	r3
	mov	r10, r0
	mov	r0, r4
	bl	_raw_spin_lock
	ldr	r3, [r4, #4]
	cmp	r3, #0
	bne	.L907
	ldr	r0, [r5, #-36]
	bl	kfree
	ldr	r3, [r6, #8]
	mov	r1, r7
	mov	r0, r6
	ldr	r3, [r3, #12]
	blx	r3
	ldr	r3, [r4, #40]
.L905:
	mov	r0, r3
	add	sp, sp, #4
	@ sp needed
	ldrd	r4, [sp]
	ldrd	r6, [sp, #8]
	ldrd	r8, [sp, #16]
	ldrd	r10, [sp, #24]
	add	sp, sp, #32
	ldr	pc, [sp], #4
.L917:
	mov	r2, r5
	mov	r1, r8
	mov	r0, fp
	bl	__list_add
	ldr	r3, [r4, #40]
	b	.L905
	.fnend
	.size	gs_start_rx, .-gs_start_rx
	.align	2
	.syntax unified
	.arm
	.fpu softvfp
	.type	audio_pcm_hw_params, %function
audio_pcm_hw_params:
	.fnstart
	@ args = 0, pretend = 0, frame = 0
	@ frame_needed = 0, uses_anonymous_args = 0
	ldr	r3, [r1, #284]
	movw	r2, #44100
	ldr	ip, [r1, #296]
	cmp	r3, #2
	cmpeq	ip, r2
	bne	.L924
	strd	r4, [sp, #-24]!
	.save {r4, r5, r6, r7, r8, lr}
	add	r5, r0, #176
	strd	r6, [sp, #8]
	str	r8, [sp, #16]
	str	lr, [sp, #20]
	ldr	ip, [r0]
	.pad #8
	sub	sp, sp, #8
	ldr	r3, [ip]
	ldr	lr, [r3, #496]
	ldrd	r2, [lr, #248]
	orrs	r3, r2, r3
	beq	.L934
.L920:
	mov	r3, #2
	mov	lr, #0
	add	r2, r0, #188
	str	r3, [r0, #176]
	ldr	r3, [ip]
	ldr	r3, [r3, #496]
	str	r3, [r0, #180]
	str	lr, [r0, #196]
	ldr	r3, [ip]
	ldr	lr, [r1, #380]
	ldr	r3, [r3, #496]
	cmp	r3, #0
	beq	.L921
	ldr	ip, [r3, #276]
	cmp	ip, #0
	beq	.L921
.L922:
	mov	r6, #0
	mov	r4, r0
	mov	r7, r1
	mov	r0, r3
	str	r6, [sp]
	mov	r1, lr
	mov	r3, #208
	ldr	r8, [ip]
	blx	r8
	cmp	r0, r6
	str	r0, [r4, #184]
	beq	.L926
	ldr	r2, [r7, #380]
	cmp	r5, r6
	ldr	r3, [r4, #212]
	str	r2, [r4, #192]
	beq	.L923
	str	r5, [r3, #552]
	ldr	r2, [r4, #184]
	mov	r0, r6
	str	r2, [r3, #540]
	ldr	r2, [r4, #188]
	str	r2, [r3, #544]
	ldr	r2, [r4, #192]
	str	r2, [r3, #548]
.L918:
	add	sp, sp, #8
	@ sp needed
	ldrd	r4, [sp]
	ldrd	r6, [sp, #8]
	ldr	r8, [sp, #16]
	add	sp, sp, #20
	ldr	pc, [sp], #4
.L934:
	mvn	r2, #0
	mov	r3, #0
	strd	r2, [lr, #248]
	ldr	ip, [r0]
	b	.L920
.L921:
	movw	ip, #:lower16:arm_dma_ops
	movt	ip, #:upper16:arm_dma_ops
	cmp	ip, #0
	bne	.L922
	.syntax divided
@ 175 "/home/Jprimero15/hlte/lolz/arch/arm/include/asm/dma-mapping.h" 1
	1:	.word 0xe7f001f2
.pushsection .rodata.str, "aMS", %progbits, 1
2:	.asciz "/home/Jprimero15/hlte/lolz/arch/arm/include/asm/dma-mapping.h"
.popsection
.pushsection __bug_table,"a"
3:	.word 1b, 2b
	.hword 175, 0
.popsection
@ 0 "" 2
	.arm
	.syntax unified
.L923:
	mov	r0, r5
	str	r5, [r3, #540]
	str	r5, [r3, #544]
	str	r5, [r3, #548]
	str	r5, [r3, #552]
	b	.L918
.L924:
	mvn	r0, #21
	bx	lr
.L926:
	mvn	r0, #11
	b	.L918
	.fnend
	.size	audio_pcm_hw_params, .-audio_pcm_hw_params
	.align	2
	.syntax unified
	.arm
	.fpu softvfp
	.type	ffs_func_eps_disable, %function
ffs_func_eps_disable:
	.fnstart
	@ args = 0, pretend = 0, frame = 0
	@ frame_needed = 0, uses_anonymous_args = 0
	strd	r4, [sp, #-32]!
	.save {r4, r5, r6, r7, r8, r9, r10, lr}
	strd	r6, [sp, #8]
	mov	r7, #0
	strd	r8, [sp, #16]
	mov	r9, r0
	mov	r8, #1
	str	r10, [sp, #24]
	str	lr, [sp, #28]
	ldr	r3, [r0, #8]
	ldr	r4, [r0, #12]
	add	r0, r3, #24
	ldr	r5, [r3, #208]
	ldrh	r6, [r3, #180]
	add	r4, r4, #28
	bl	_raw_spin_lock_irqsave
	mov	r10, r0
.L937:
	str	r8, [r5, #32]
	ldr	r3, [r4, #-28]
	subs	r0, r3, #0
	beq	.L936
	ldr	r3, [r3, #8]
	ldr	r3, [r3, #4]
	blx	r3
	ldr	r3, [r4, #-28]
	str	r7, [r3]
.L936:
	subs	r6, r6, #1
	str	r7, [r5, #40]
	add	r4, r4, #28
	add	r5, r5, #56
	bne	.L937
	ldr	r0, [r9, #8]
	mov	r1, r10
	ldrd	r4, [sp]
	ldrd	r6, [sp, #8]
	ldrd	r8, [sp, #16]
	ldr	r10, [sp, #24]
	add	r0, r0, #24
	ldr	lr, [sp, #28]
	add	sp, sp, #32
	b	_raw_spin_unlock_irqrestore
	.fnend
	.size	ffs_func_eps_disable, .-ffs_func_eps_disable
	.align	2
	.syntax unified
	.arm
	.fpu softvfp
	.type	ffs_do_descs, %function
ffs_do_descs:
	.fnstart
	@ args = 4, pretend = 0, frame = 0
	@ frame_needed = 0, uses_anonymous_args = 0
	strd	r4, [sp, #-32]!
	.save {r4, r5, r6, r7, r8, r9, r10, lr}
	strd	r6, [sp, #8]
	strd	r8, [sp, #16]
	subs	r9, r0, #0
	mov	r8, r3
	str	r10, [sp, #24]
	mov	r10, r2
	str	lr, [sp, #28]
	beq	.L957
	mov	r4, r1
	mov	r7, r2
	mov	r6, #0
.L954:
	mov	r2, r4
	mov	r1, r6
	ldr	r3, [sp, #32]
	mov	r0, #0
	blx	r8
	cmp	r0, #0
	blt	.L943
	cmp	r4, #0
	beq	.L956
	cmp	r7, #1
	bls	.L965
	ldrb	r5, [r4]	@ zero_extendqisi2
	cmp	r5, r7
	bhi	.L965
	ldrb	r3, [r4, #1]	@ zero_extendqisi2
	sub	r3, r3, #4
	cmp	r3, #44
	ldrls	pc, [pc, r3, asl #2]
	b	.L965
.L948:
	.word	.L947
	.word	.L949
	.word	.L965
	.word	.L965
	.word	.L965
	.word	.L950
	.word	.L965
	.word	.L951
	.word	.L965
	.word	.L965
	.word	.L965
	.word	.L965
	.word	.L965
	.word	.L965
	.word	.L965
	.word	.L965
	.word	.L965
	.word	.L965
	.word	.L965
	.word	.L965
	.word	.L965
	.word	.L965
	.word	.L965
	.word	.L965
	.word	.L965
	.word	.L965
	.word	.L965
	.word	.L965
	.word	.L965
	.word	.L965
	.word	.L965
	.word	.L965
	.word	.L965
	.word	.L965
	.word	.L965
	.word	.L965
	.word	.L965
	.word	.L965
	.word	.L965
	.word	.L965
	.word	.L965
	.word	.L965
	.word	.L965
	.word	.L965
	.word	.L952
.L952:
	cmp	r5, #6
	beq	.L955
.L965:
	mvn	r0, #21
.L943:
	ldrd	r4, [sp]
	ldrd	r6, [sp, #8]
	ldrd	r8, [sp, #16]
	ldr	r10, [sp, #24]
	add	sp, sp, #28
	ldr	pc, [sp], #4
.L950:
	cmp	r5, #5
	bne	.L965
.L955:
	add	r6, r6, #1
	sub	r7, r7, r5
	cmp	r9, r6
	add	r4, r4, r5
	bne	.L954
.L944:
	mov	r2, #0
	mov	r1, r9
	ldr	r3, [sp, #32]
	mov	r0, r2
	blx	r8
	cmp	r0, #0
	blt	.L943
.L956:
	sub	r0, r10, r7
	b	.L943
.L949:
	sub	r3, r5, #7
	tst	r3, #253
	bne	.L965
	ldrb	r3, [r4, #2]	@ zero_extendqisi2
	tst	r3, #15
	beq	.L965
	mov	r2, r4
	add	r1, r4, #2
	ldr	r3, [sp, #32]
	mov	r0, #3
	blx	r8
	cmp	r0, #0
	bge	.L955
	b	.L943
.L947:
	cmp	r5, #9
	bne	.L965
	mov	r2, r4
	add	r1, r4, #2
	ldr	r3, [sp, #32]
	mov	r0, #1
	blx	r8
	cmp	r0, #0
	blt	.L943
	ldrb	r3, [r4, #8]	@ zero_extendqisi2
	cmp	r3, #0
	beq	.L955
	mov	r2, r4
	add	r1, r4, #8
	ldr	r3, [sp, #32]
	mov	r0, #2
	blx	r8
	cmp	r0, #0
	bge	.L955
	b	.L943
.L951:
	cmp	r5, #8
	bne	.L965
	ldrb	r3, [r4, #7]	@ zero_extendqisi2
	cmp	r3, #0
	beq	.L955
	mov	r2, r4
	add	r1, r4, #7
	ldr	r3, [sp, #32]
	mov	r0, #2
	blx	r8
	cmp	r0, #0
	bge	.L955
	b	.L943
.L957:
	mov	r7, r2
	b	.L944
	.fnend
	.size	ffs_do_descs, .-ffs_do_descs
	.align	2
	.syntax unified
	.arm
	.fpu softvfp
	.type	ffs_ep0_open, %function
ffs_ep0_open:
	.fnstart
	@ args = 0, pretend = 0, frame = 0
	@ frame_needed = 0, uses_anonymous_args = 0
	@ link register save eliminated.
	ldr	r3, [r0, #328]
	ldr	r2, [r3, #92]
	cmp	r2, #3
	beq	.L976
	add	r2, r3, #84
	str	r3, [r1, #124]
	.syntax divided
@ 45 "/home/Jprimero15/hlte/lolz/arch/arm/include/asm/atomic.h" 1
	@ atomic_add
1:	ldrex	r1, [r2]
	add	r1, r1, #1
	strex	r0, r1, [r2]
	teq	r0, #0
	bne	1b
@ 0 "" 2
	.arm
	.syntax unified
	add	r2, r3, #88
	.syntax divided
@ 45 "/home/Jprimero15/hlte/lolz/arch/arm/include/asm/atomic.h" 1
	@ atomic_add
1:	ldrex	r1, [r2]
	add	r1, r1, #1
	strex	r0, r1, [r2]
	teq	r0, #0
	bne	1b
@ 0 "" 2
	.arm
	.syntax unified
	mov	r0, #0
	bx	lr
.L976:
	mvn	r0, #15
	bx	lr
	.fnend
	.size	ffs_ep0_open, .-ffs_ep0_open
	.align	2
	.syntax unified
	.arm
	.fpu softvfp
	.type	__ffs_func_bind_do_nums, %function
__ffs_func_bind_do_nums:
	.fnstart
	@ args = 0, pretend = 0, frame = 0
	@ frame_needed = 0, uses_anonymous_args = 0
	cmp	r0, #2
	beq	.L979
	cmp	r0, #3
	beq	.L980
	cmp	r0, #1
	beq	.L997
.L996:
	mov	r0, #0
	bx	lr
.L997:
	ldrb	r0, [r1]	@ zero_extendqisi2
	ldr	r2, [r3, #32]
	lsl	r0, r0, #1
	ldrsh	r2, [r2, r0]
	cmp	r2, #0
	uxtbge	r3, r2
	blt	.L998
	strb	r3, [r1]
.L999:
	mov	r0, #0
	bx	lr
.L980:
	ldrb	r2, [r2, #1]	@ zero_extendqisi2
	cmp	r2, #5
	beq	.L996
	ldrb	r2, [r1]	@ zero_extendqisi2
	ldr	r0, [r3, #12]
	and	r3, r2, #15
	sub	r3, r3, #1
	rsb	r3, r3, r3, lsl #3
	lsl	r3, r3, #2
	ldr	r2, [r0, r3]
	add	r3, r0, r3
	cmp	r2, #0
	beq	.L988
	ldr	r2, [r3, #8]
	cmp	r2, #0
	ldreq	r2, [r3, #12]
	ldrb	r3, [r2, #2]	@ zero_extendqisi2
	strb	r3, [r1]
	b	.L999
.L979:
	ldr	r2, [r3, #8]
	ldrb	r3, [r1]	@ zero_extendqisi2
	ldr	r2, [r2, #188]
	sub	r3, r3, #-536870911
	ldr	r2, [r2]
	ldr	r2, [r2, #4]
	ldrb	r3, [r2, r3, lsl #3]	@ zero_extendqisi2
	strb	r3, [r1]
	b	.L999
.L998:
	mov	ip, r3
	strd	r4, [sp, #-12]!
	.save {r4, r5, lr}
	str	lr, [sp, #8]
	ldr	lr, [ip], #36
	ldrb	r2, [lr, #44]	@ zero_extendqisi2
	cmp	r2, #15
	mvnhi	r0, #18
	bhi	.L977
	add	r5, r2, #12
	add	r4, r2, #1
	str	ip, [lr, r5, lsl #2]
	strb	r4, [lr, #44]
	ldr	ip, [r3, #32]
	strh	r2, [ip, r0]	@ movhi
	ldr	r3, [r3, #32]
	ldrsh	r2, [r3, r0]
	mov	r0, #0
	uxtb	r3, r2
	strb	r3, [r1]
.L977:
	ldrd	r4, [sp]
	add	sp, sp, #8
	ldr	pc, [sp], #4
.L988:
	mvn	r0, #21
	bx	lr
	.fnend
	.size	__ffs_func_bind_do_nums, .-__ffs_func_bind_do_nums
	.align	2
	.syntax unified
	.arm
	.fpu softvfp
	.type	ffs_epfile_open, %function
ffs_epfile_open:
	.fnstart
	@ args = 0, pretend = 0, frame = 0
	@ frame_needed = 0, uses_anonymous_args = 0
	.save {r4, lr}
	str	r4, [sp, #-8]!
	str	lr, [sp, #4]
	ldr	r2, [r0, #328]
	ldr	r3, [r2, #36]
	ldr	r3, [r3, #92]
	cmp	r3, #2
	bne	.L1004
	str	r2, [r1, #124]
	ldr	r3, [r2, #36]
	add	r1, r3, #84
	.syntax divided
@ 45 "/home/Jprimero15/hlte/lolz/arch/arm/include/asm/atomic.h" 1
	@ atomic_add
1:	ldrex	r0, [r1]
	add	r0, r0, #1
	strex	ip, r0, [r1]
	teq	ip, #0
	bne	1b
@ 0 "" 2
	.arm
	.syntax unified
	add	r1, r3, #88
	.syntax divided
@ 45 "/home/Jprimero15/hlte/lolz/arch/arm/include/asm/atomic.h" 1
	@ atomic_add
1:	ldrex	r0, [r1]
	add	r0, r0, #1
	strex	ip, r0, [r1]
	teq	ip, #0
	bne	1b
@ 0 "" 2
	.arm
	.syntax unified
	mov	r3, #0
	mov	r0, r3
	str	r3, [r2, #32]
	ldr	r4, [sp]
	add	sp, sp, #4
	ldr	pc, [sp], #4
.L1004:
	movw	r0, #:lower16:.LC9
	movw	r1, #946
	movt	r0, #:upper16:.LC9
	bl	warn_slowpath_null
	ldr	r4, [sp]
	add	sp, sp, #4
	mvn	r0, #18
	ldr	pc, [sp], #4
	.fnend
	.size	ffs_epfile_open, .-ffs_epfile_open
	.align	2
	.syntax unified
	.arm
	.fpu softvfp
	.type	do_mode_sense, %function
do_mode_sense:
	.fnstart
	@ args = 0, pretend = 0, frame = 0
	@ frame_needed = 0, uses_anonymous_args = 0
	strd	r4, [sp, #-32]!
	.save {r4, r5, r6, r7, r8, r9, r10, lr}
	strd	r6, [sp, #8]
	strd	r8, [sp, #16]
	str	r10, [sp, #24]
	str	lr, [sp, #28]
	ldrb	r3, [r0, #77]	@ zero_extendqisi2
	ldrb	r8, [r0, #76]	@ zero_extendqisi2
	ldr	r7, [r0, #104]
	ldr	r5, [r1]
	tst	r3, #247
	bne	.L1015
	ldrb	r4, [r0, #78]	@ zero_extendqisi2
	lsr	r9, r4, #6
	and	r4, r4, #63
	cmp	r9, #3
	moveq	r3, #14592
	mvneq	r0, #21
	movteq	r3, 5
	streq	r3, [r7, #28]
	beq	.L1005
	mov	r1, #8
	mov	r0, r5
	bl	__memzero
	sub	r3, r4, #63
	cmp	r8, #26
	ldrb	r2, [r7, #24]	@ zero_extendqisi2
	clz	r3, r3
	lsr	r3, r3, #5
	beq	.L1021
	lsl	r2, r2, #6
	add	r6, r5, #8
	bic	r2, r2, #127
	movw	r10, #65535
	strb	r2, [r5, #3]
.L1010:
	cmp	r4, #8
	orreq	r3, r3, #1
	cmp	r3, #0
	bne	.L1022
	cmp	r4, #42
	beq	.L1014
.L1015:
	mov	r3, #9216
	mvn	r0, #21
	movt	r3, 5
	str	r3, [r7, #28]
.L1005:
	ldrd	r4, [sp]
	ldrd	r6, [sp, #8]
	ldrd	r8, [sp, #16]
	ldr	r10, [sp, #24]
	add	sp, sp, #28
	ldr	pc, [sp], #4
.L1021:
	lsl	r2, r2, #6
	add	r6, r5, #4
	mov	r10, #255
	bic	r2, r2, #127
	strb	r2, [r5, #2]
	b	.L1010
.L1022:
	mov	r3, #10
	mov	r2, #8
	mov	r1, r3
	add	r0, r6, #2
	strb	r2, [r6]
	strb	r3, [r6, #1]
	bl	__memzero
	cmp	r9, #1
	beq	.L1012
	mvn	r3, #0
	mov	r2, #4
	strb	r2, [r6, #2]
	strb	r3, [r6, #4]
	strb	r3, [r6, #5]
	strb	r3, [r6, #8]
	strb	r3, [r6, #9]
	strb	r3, [r6, #10]
	strb	r3, [r6, #11]
.L1012:
	add	r0, r6, #12
.L1013:
	sub	r0, r0, r5
	cmp	r10, r0
	blt	.L1015
	cmp	r8, #26
	subeq	r3, r0, #1
	strbeq	r3, [r5]
	beq	.L1005
	sub	r3, r0, #2
	uxth	r3, r3
	lsr	r2, r3, #8
	strb	r2, [r5]
	strb	r3, [r5, #1]
	b	.L1005
.L1014:
	mov	r3, #26
	add	r0, r6, #2
	strb	r4, [r6]
	mov	r1, r3
	strb	r3, [r6, #1]
	bl	__memzero
	mov	r3, #2
	mov	r1, #4
	mov	r2, #40
	add	r0, r6, #28
	strb	r3, [r6, #2]
	strb	r3, [r6, #3]
	strb	r1, [r6, #4]
	strb	r2, [r6, #6]
	b	.L1013
	.fnend
	.size	do_mode_sense, .-do_mode_sense
	.align	2
	.global	usb_rmnet_mux_ctrl_open
	.syntax unified
	.arm
	.fpu softvfp
	.type	usb_rmnet_mux_ctrl_open, %function
usb_rmnet_mux_ctrl_open:
	.fnstart
	@ args = 0, pretend = 0, frame = 0
	@ frame_needed = 0, uses_anonymous_args = 0
	movw	r3, #:lower16:.LANCHOR1
	strd	r4, [sp, #-24]!
	.save {r4, r5, r6, r7, r8, lr}
	movt	r3, #:upper16:.LANCHOR1
	strd	r6, [sp, #8]
	mov	r7, r1
	str	r8, [sp, #16]
	str	lr, [sp, #20]
	ldr	r5, [r3, #2496]
	add	r6, r5, #368
	mov	r0, r6
	bl	_raw_spin_lock_irqsave
	ldr	r4, [r5, #356]
	mov	r1, r0
	cmp	r4, #0
	bne	.L1027
	mov	r3, #1
	mov	r0, r6
	str	r3, [r5, #356]
	str	r5, [r7, #124]
	bl	_raw_spin_unlock_irqrestore
	mov	r0, r4
.L1023:
	ldrd	r4, [sp]
	ldrd	r6, [sp, #8]
	ldr	r8, [sp, #16]
	add	sp, sp, #20
	ldr	pc, [sp], #4
.L1027:
	mov	r0, r6
	bl	_raw_spin_unlock_irqrestore
	movw	r1, #:lower16:.LANCHOR2
	movw	r0, #:lower16:.LC10
	movt	r1, #:upper16:.LANCHOR2
	movt	r0, #:upper16:.LC10
	bl	printk
	mvn	r0, #15
	b	.L1023
	.fnend
	.size	usb_rmnet_mux_ctrl_open, .-usb_rmnet_mux_ctrl_open
	.align	2
	.syntax unified
	.arm
	.fpu softvfp
	.type	audio_setup, %function
audio_setup:
	.fnstart
	@ args = 0, pretend = 0, frame = 0
	@ frame_needed = 0, uses_anonymous_args = 0
	.save {r4, lr}
	str	r4, [sp, #-8]!
	str	lr, [sp, #4]
	ldr	r3, [r0, #20]
	ldrb	r2, [r1]	@ zero_extendqisi2
	ldr	r0, [r3, #24]
	cmp	r2, #34
	ldr	r3, [r0, #4]
	beq	.L1030
	cmp	r2, #162
	bne	.L1038
	ldrh	ip, [r1, #2]	@ unaligned
	ldrb	r2, [r1, #1]	@ zero_extendqisi2
	ldr	r1, [r3]
	cmp	ip, #256
	bne	.L1038
	sub	r2, r2, #129
	cmp	r2, #3
	bhi	.L1038
	mov	r4, #68
	mvn	lr, #83
	mov	ip, #0
	mov	r2, #3
	strb	r4, [r1]
	strb	lr, [r1, #1]
	strb	ip, [r1, #2]
.L1033:
	ldrb	lr, [r3, #26]	@ zero_extendqisi2
	movw	ip, #:lower16:audio_control_complete
	str	r2, [r3, #4]
	movt	ip, #:upper16:audio_control_complete
	mov	r1, r3
	mov	r2, #32
	str	ip, [r3, #28]
	bfc	lr, #1, #1
	strb	lr, [r3, #26]
	ldr	r3, [r0]
	ldr	r0, [r3, #4]
	ldr	r3, [r0, #8]
	ldr	r3, [r3, #16]
	blx	r3
	subs	r4, r0, #0
	bge	.L1028
	movw	r0, #:lower16:.LC11
	mov	r1, r4
	movt	r0, #:upper16:.LC11
	bl	printk
	b	.L1028
.L1030:
	ldrb	ip, [r1, #1]	@ zero_extendqisi2
	ldrh	r2, [r1, #6]	@ unaligned
	sub	r1, ip, #1
	cmp	r1, #3
	bls	.L1033
.L1038:
	mvn	r4, #94
.L1028:
	mov	r0, r4
	ldr	r4, [sp]
	add	sp, sp, #4
	ldr	pc, [sp], #4
	.fnend
	.size	audio_setup, .-audio_setup
	.align	2
	.syntax unified
	.arm
	.fpu softvfp
	.type	gsmd_start_rx, %function
gsmd_start_rx:
	.fnstart
	@ args = 0, pretend = 0, frame = 0
	@ frame_needed = 0, uses_anonymous_args = 0
	strd	r4, [sp, #-36]!
	.save {r4, r5, r6, r7, r8, r9, r10, fp, lr}
	subs	r5, r0, #0
	strd	r6, [sp, #8]
	strd	r8, [sp, #16]
	strd	r10, [sp, #24]
	str	lr, [sp, #32]
	.pad #4
	sub	sp, sp, #4
	beq	.L1055
	add	r6, r5, #4
	mov	r0, r6
	bl	_raw_spin_lock_irqsave
	ldr	r3, [r5, #68]
	mov	r7, r0
	cmp	r3, #0
	beq	.L1043
	add	r9, r5, #12
	mov	r10, #2048
	ldr	r8, [r3, #92]
	b	.L1044
.L1057:
	ldr	r4, [r5, #12]
	cmp	r9, r4
	mov	r0, r4
	sub	fp, r4, #36
	beq	.L1043
	bl	list_del
	mov	r1, r7
	mov	r0, r6
	str	r10, [r4, #-32]
	bl	_raw_spin_unlock_irqrestore
	ldr	r3, [r8, #8]
	mov	r1, fp
	mov	r2, #208
	mov	r0, r8
	ldr	r3, [r3, #16]
	blx	r3
	mov	fp, r0
	mov	r0, r6
	bl	_raw_spin_lock_irqsave
	cmp	fp, #0
	mov	r7, r0
	bne	.L1056
.L1044:
	ldr	r3, [r5, #72]
	ldr	r3, [r3, #8]
	tst	r3, #1
	bne	.L1057
.L1043:
	mov	r1, r7
	mov	r0, r6
	add	sp, sp, #4
	@ sp needed
	ldrd	r4, [sp]
	ldrd	r6, [sp, #8]
	ldrd	r8, [sp, #16]
	ldrd	r10, [sp, #24]
	ldr	lr, [sp, #32]
	add	sp, sp, #36
	b	_raw_spin_unlock_irqrestore
.L1056:
	movw	r0, #:lower16:.LC13
	mov	r2, r5
	ldr	r1, .L1058
	ldr	r3, [r5]
	movt	r0, #:upper16:.LC13
	bl	printk
	mov	r2, r9
	mov	r0, r4
	ldr	r1, [r5, #16]
	bl	__list_add
	b	.L1043
.L1055:
	ldr	r1, .L1058
	movw	r0, #:lower16:.LC12
	movt	r0, #:upper16:.LC12
	add	sp, sp, #4
	@ sp needed
	ldrd	r4, [sp]
	ldrd	r6, [sp, #8]
	ldrd	r8, [sp, #16]
	ldrd	r10, [sp, #24]
	ldr	lr, [sp, #32]
	add	sp, sp, #36
	b	printk
.L1059:
	.align	2
.L1058:
	.word	.LANCHOR2+24
	.fnend
	.size	gsmd_start_rx, .-gsmd_start_rx
	.align	2
	.syntax unified
	.arm
	.fpu softvfp
	.type	gbam_stop, %function
gbam_stop:
	.fnstart
	@ args = 0, pretend = 0, frame = 0
	@ frame_needed = 0, uses_anonymous_args = 0
	cmp	r1, #0
	strd	r4, [sp, #-16]!
	.save {r4, r5, r6, lr}
	mov	r4, r0
	str	r6, [sp, #8]
	str	lr, [sp, #12]
	beq	.L1074
	add	r5, r0, #8
	mov	r0, r5
	bl	_raw_spin_lock
	ldr	r3, [r4, #12]
	cmp	r3, #0
	beq	.L1075
	ldr	r0, [r3, #84]
	ldr	r1, [r4, #116]
	ldr	r3, [r0, #8]
	ldr	r3, [r3, #20]
	blx	r3
	subs	r2, r0, #0
	bne	.L1076
.L1065:
	mov	r0, r5
	ldrd	r4, [sp]
	ldr	r6, [sp, #8]
	ldr	lr, [sp, #12]
	add	sp, sp, #16
	b	_raw_spin_unlock
.L1074:
	add	r5, r0, #4
	mov	r0, r5
	bl	_raw_spin_lock
	ldr	r3, [r4, #12]
	cmp	r3, #0
	beq	.L1077
	ldr	r0, [r3, #88]
	ldr	r1, [r4, #112]
	ldr	r3, [r0, #8]
	ldr	r3, [r3, #20]
	blx	r3
	subs	r2, r0, #0
	beq	.L1065
	movw	r0, #:lower16:.LC15
	ldr	r1, .L1078
	movt	r0, #:upper16:.LC15
	bl	printk
	b	.L1065
.L1076:
	movw	r0, #:lower16:.LC15
	ldr	r1, .L1078+4
	movt	r0, #:upper16:.LC15
	bl	printk
	b	.L1065
.L1075:
	mov	r0, r5
	bl	_raw_spin_unlock
	ldr	r1, .L1078+4
	movw	r0, #:lower16:.LC14
.L1073:
	ldrd	r4, [sp]
	movt	r0, #:upper16:.LC14
	ldr	r6, [sp, #8]
	ldr	lr, [sp, #12]
	add	sp, sp, #16
	b	printk
.L1077:
	mov	r0, r5
	bl	_raw_spin_unlock
	movw	r0, #:lower16:.LC14
	ldr	r1, .L1078
	b	.L1073
.L1079:
	.align	2
.L1078:
	.word	.LANCHOR2+40
	.word	.LANCHOR2+64
	.fnend
	.size	gbam_stop, .-gbam_stop
	.align	2
	.syntax unified
	.arm
	.fpu softvfp
	.type	gbam_start_endless_rx, %function
gbam_start_endless_rx:
	.fnstart
	@ args = 0, pretend = 0, frame = 0
	@ frame_needed = 0, uses_anonymous_args = 0
	strd	r4, [sp, #-16]!
	.save {r4, r5, r6, lr}
	add	r5, r0, #4
	mov	r4, r0
	mov	r0, r5
	str	r6, [sp, #8]
	str	lr, [sp, #12]
	bl	_raw_spin_lock
	ldr	r3, [r4, #12]
	cmp	r3, #0
	beq	.L1087
	ldr	r0, [r3, #88]
	mov	r2, #32
	ldr	r1, [r4, #112]
	ldr	r3, [r0, #8]
	ldr	r3, [r3, #16]
	blx	r3
	subs	r2, r0, #0
	bne	.L1088
.L1082:
	mov	r0, r5
	ldrd	r4, [sp]
	ldr	r6, [sp, #8]
	ldr	lr, [sp, #12]
	add	sp, sp, #16
	b	_raw_spin_unlock
.L1087:
	mov	r0, r5
	bl	_raw_spin_unlock
	movw	r0, #:lower16:.LC14
	ldrd	r4, [sp]
	ldr	r6, [sp, #8]
	movt	r0, #:upper16:.LC14
	ldr	lr, [sp, #12]
	add	sp, sp, #16
	ldr	r1, .L1089
	b	printk
.L1088:
	movw	r0, #:lower16:.LC16
	ldr	r1, .L1089
	movt	r0, #:upper16:.LC16
	bl	printk
	b	.L1082
.L1090:
	.align	2
.L1089:
	.word	.LANCHOR2+88
	.fnend
	.size	gbam_start_endless_rx, .-gbam_start_endless_rx
	.align	2
	.syntax unified
	.arm
	.fpu softvfp
	.type	gbam_start_endless_tx, %function
gbam_start_endless_tx:
	.fnstart
	@ args = 0, pretend = 0, frame = 0
	@ frame_needed = 0, uses_anonymous_args = 0
	strd	r4, [sp, #-16]!
	.save {r4, r5, r6, lr}
	add	r5, r0, #8
	mov	r4, r0
	mov	r0, r5
	str	r6, [sp, #8]
	str	lr, [sp, #12]
	bl	_raw_spin_lock
	ldr	r3, [r4, #12]
	cmp	r3, #0
	beq	.L1098
	ldr	r0, [r3, #84]
	mov	r2, #32
	ldr	r1, [r4, #116]
	ldr	r3, [r0, #8]
	ldr	r3, [r3, #16]
	blx	r3
	subs	r2, r0, #0
	bne	.L1099
.L1093:
	mov	r0, r5
	ldrd	r4, [sp]
	ldr	r6, [sp, #8]
	ldr	lr, [sp, #12]
	add	sp, sp, #16
	b	_raw_spin_unlock
.L1098:
	mov	r0, r5
	bl	_raw_spin_unlock
	movw	r0, #:lower16:.LC14
	ldrd	r4, [sp]
	ldr	r6, [sp, #8]
	movt	r0, #:upper16:.LC14
	ldr	lr, [sp, #12]
	add	sp, sp, #16
	ldr	r1, .L1100
	b	printk
.L1099:
	movw	r0, #:lower16:.LC16
	ldr	r1, .L1100
	movt	r0, #:upper16:.LC16
	bl	printk
	b	.L1093
.L1101:
	.align	2
.L1100:
	.word	.LANCHOR2+112
	.fnend
	.size	gbam_start_endless_tx, .-gbam_start_endless_tx
	.align	2
	.syntax unified
	.arm
	.fpu softvfp
	.type	gbam_start, %function
gbam_start:
	.fnstart
	@ args = 0, pretend = 0, frame = 0
	@ frame_needed = 0, uses_anonymous_args = 0
	@ link register save eliminated.
	cmp	r1, #0
	beq	.L1104
	b	gbam_start_endless_tx
.L1104:
	b	gbam_start_endless_rx
	.fnend
	.size	gbam_start, .-gbam_start
	.align	2
	.syntax unified
	.arm
	.fpu softvfp
	.type	ghsic_send_cpkt_tomodem, %function
ghsic_send_cpkt_tomodem:
	.fnstart
	@ args = 0, pretend = 0, frame = 0
	@ frame_needed = 0, uses_anonymous_args = 0
	movw	r3, #:lower16:.LANCHOR1
	strd	r4, [sp, #-24]!
	.save {r4, r5, r6, r7, r8, lr}
	mov	ip, r0
	movt	r3, #:upper16:.LANCHOR1
	strd	r6, [sp, #8]
	mov	r6, r1
	str	r8, [sp, #16]
	str	lr, [sp, #20]
	ldr	r1, [r3, #1020]
	cmp	r0, r1
	bcs	.L1112
	mov	r4, r2
	mov	r2, #104
	mla	r3, r2, r0, r3
	ldr	r5, [r3, #1024]
	cmp	r5, #0
	beq	.L1113
	mov	r1, #32
	mov	r0, r4
	bl	__kmalloc
	subs	r7, r0, #0
	beq	.L1110
	mov	r2, r4
	mov	r1, r6
	bl	memcpy
	ldr	r0, [r5, #84]
	ands	r4, r0, #1
	beq	.L1114
	ldr	r3, [r5, #96]
	mov	r4, #0
	add	r3, r3, #1
	str	r3, [r5, #96]
.L1105:
	mov	r0, r4
	ldrd	r4, [sp]
	ldrd	r6, [sp, #8]
	ldr	r8, [sp, #16]
	add	sp, sp, #20
	ldr	pc, [sp], #4
.L1114:
	ldr	r3, [r5, #104]
	mov	r0, r7
	add	r3, r3, #1
	str	r3, [r5, #104]
	bl	kfree
	b	.L1105
.L1110:
	mvn	r4, #11
	b	.L1105
.L1113:
	movw	r0, #:lower16:.LC12
	ldr	r1, .L1115
	mvn	r4, #18
	movt	r0, #:upper16:.LC12
	bl	printk
	b	.L1105
.L1112:
	movw	r0, #:lower16:.LC17
	mov	r2, ip
	ldr	r1, .L1115
	movt	r0, #:upper16:.LC17
	mvn	r4, #18
	bl	printk
	b	.L1105
.L1116:
	.align	2
.L1115:
	.word	.LANCHOR2+136
	.fnend
	.size	ghsic_send_cpkt_tomodem, .-ghsic_send_cpkt_tomodem
	.align	2
	.syntax unified
	.arm
	.fpu softvfp
	.type	ecm_qc_setup, %function
ecm_qc_setup:
	.fnstart
	@ args = 0, pretend = 0, frame = 0
	@ frame_needed = 0, uses_anonymous_args = 0
	strd	r4, [sp, #-12]!
	.save {r4, r5, lr}
	movw	r3, #17185
	str	lr, [sp, #8]
	ldr	ip, [r0, #20]
	.pad #12
	sub	sp, sp, #12
	ldrh	r2, [r1]	@ unaligned
	ldrh	r4, [r1, #4]	@ unaligned
	ldrh	r5, [r1, #2]	@ unaligned
	ldr	lr, [ip, #24]
	cmp	r2, r3
	ldrh	ip, [r1, #6]	@ unaligned
	ldr	r3, [lr, #4]
	bne	.L1122
	cmp	ip, #0
	bne	.L1122
	ldrb	r2, [r0, #120]	@ zero_extendqisi2
	cmp	r2, r4
	bne	.L1122
	strh	r5, [r0, #98]	@ movhi
	ldrb	r0, [r3, #26]	@ zero_extendqisi2
	mov	r4, r1
	str	ip, [r3, #4]
	mov	r1, r3
	mov	r2, #32
	bfi	r0, ip, #1, #1
	strb	r0, [r3, #26]
	ldr	r3, [lr]
	ldr	r0, [r3, #4]
	ldr	r3, [r0, #8]
	ldr	r3, [r3, #16]
	blx	r3
	subs	r5, r0, #0
	blt	.L1125
.L1117:
	mov	r0, r5
	add	sp, sp, #12
	@ sp needed
	ldrd	r4, [sp]
	add	sp, sp, #8
	ldr	pc, [sp], #4
.L1122:
	mvn	r5, #94
	b	.L1117
.L1125:
	movw	r0, #:lower16:.LC18
	ldrb	r3, [r4, #1]	@ zero_extendqisi2
	str	r5, [sp]
	ldr	r1, .L1126
	movt	r0, #:upper16:.LC18
	ldrb	r2, [r4]	@ zero_extendqisi2
	bl	printk
	b	.L1117
.L1127:
	.align	2
.L1126:
	.word	.LANCHOR2+160
	.fnend
	.size	ecm_qc_setup, .-ecm_qc_setup
	.align	2
	.syntax unified
	.arm
	.fpu softvfp
	.type	mbim_ep0out_complete, %function
mbim_ep0out_complete:
	.fnstart
	@ args = 0, pretend = 0, frame = 0
	@ frame_needed = 0, uses_anonymous_args = 0
	.save {r4, lr}
	str	r4, [sp, #-8]!
	mov	r3, #0
	mov	r4, r0
	str	lr, [sp, #4]
	ldr	r0, [r1, #32]
	ldr	r2, [r1, #44]
	str	r3, [r1, #32]
	cmp	r2, r3
	bne	.L1129
	ldr	ip, [r1, #4]
	ldr	r3, [r1, #48]
	cmp	r3, ip
	bne	.L1129
	cmp	r3, #4
	beq	.L1141
	cmp	r3, #8
	bne	.L1135
	ldr	r3, [r1]
	ldr	r2, [r3]	@ unaligned
	cmp	r2, #2048
	bcc	.L1136
	movw	r1, #:lower16:.LANCHOR0
	movt	r1, #:upper16:.LANCHOR0
	ldr	r1, [r1, #52]
	cmp	r1, r2
	bcc	.L1136
	ldrb	r1, [r3, #5]	@ zero_extendqisi2
	ldrb	r3, [r3, #4]	@ zero_extendqisi2
	orr	r3, r3, r1, lsl #8
	strh	r3, [r0, #228]	@ movhi
.L1134:
	str	r2, [r0, #224]
	ldr	r4, [sp]
	add	sp, sp, #4
	ldr	pc, [sp], #4
.L1141:
	ldr	r3, [r1]
	ldr	r2, [r3]	@ unaligned
	cmp	r2, #2048
	bcc	.L1136
	movw	r3, #:lower16:.LANCHOR0
	movt	r3, #:upper16:.LANCHOR0
	ldr	r3, [r3, #52]
	cmp	r3, r2
	bcs	.L1134
.L1136:
	movw	r0, #:lower16:.LC20
	ldr	r1, .L1142
	movt	r0, #:upper16:.LC20
	bl	printk
.L1131:
	ldr	r3, [r4, #8]
	mov	r0, r4
	mov	r1, #1
	ldr	r3, [r3, #24]
	blx	r3
	ldr	r2, .L1142
	movw	r0, #:lower16:.LC22
	ldr	r4, [sp]
	movt	r0, #:upper16:.LC22
	ldr	lr, [sp, #4]
	add	sp, sp, #8
	mov	r1, r2
	b	printk
.L1129:
	movw	r0, #:lower16:.LC19
	ldr	r1, .L1142
	movt	r0, #:upper16:.LC19
	bl	printk
	b	.L1131
.L1135:
	movw	r0, #:lower16:.LC21
	ldr	r1, .L1142
	movt	r0, #:upper16:.LC21
	bl	printk
	b	.L1131
.L1143:
	.align	2
.L1142:
	.word	.LANCHOR2+176
	.fnend
	.size	mbim_ep0out_complete, .-mbim_ep0out_complete
	.align	2
	.syntax unified
	.arm
	.fpu softvfp
	.type	bam_data_stop, %function
bam_data_stop:
	.fnstart
	@ args = 0, pretend = 0, frame = 0
	@ frame_needed = 0, uses_anonymous_args = 0
	cmp	r1, #0
	.save {r4, lr}
	str	r4, [sp, #-8]!
	str	lr, [sp, #4]
	ldr	r3, [r0, #4]
	beq	.L1160
	cmp	r3, #0
	beq	.L1144
	ldr	r3, [r3, #8]
	ldr	r1, [r0, #40]
	ldr	r2, [r3, #8]
	mov	r0, r3
	ldr	r3, [r2, #20]
	blx	r3
	subs	r3, r0, #0
	bne	.L1161
.L1144:
	ldr	r4, [sp]
	add	sp, sp, #4
	ldr	pc, [sp], #4
.L1160:
	cmp	r3, #0
	beq	.L1144
	ldr	r3, [r3, #12]
	ldr	r1, [r0, #36]
	ldr	r2, [r3, #8]
	mov	r0, r3
	ldr	r3, [r2, #20]
	blx	r3
	subs	r3, r0, #0
	ldrne	r2, .L1162
	beq	.L1144
.L1159:
	movw	r0, #:lower16:.LC23
	ldr	r4, [sp]
	mov	r1, r2
	ldr	lr, [sp, #4]
	movt	r0, #:upper16:.LC23
	add	sp, sp, #8
	b	printk
.L1161:
	ldr	r2, .L1162+4
	b	.L1159
.L1163:
	.align	2
.L1162:
	.word	.LANCHOR2+200
	.word	.LANCHOR2+228
	.fnend
	.size	bam_data_stop, .-bam_data_stop
	.align	2
	.syntax unified
	.arm
	.fpu softvfp
	.type	bam_data_start_endless_rx, %function
bam_data_start_endless_rx:
	.fnstart
	@ args = 0, pretend = 0, frame = 0
	@ frame_needed = 0, uses_anonymous_args = 0
	ldr	r2, [r0, #4]
	cmp	r2, #0
	bxeq	lr
	.save {r4, lr}
	str	r4, [sp, #-8]!
	mov	r3, r0
	str	lr, [sp, #4]
	ldr	r0, [r2, #12]
	mov	r2, #32
	ldr	r1, [r3, #36]
	ldr	r3, [r0, #8]
	ldr	r3, [r3, #16]
	blx	r3
	subs	r2, r0, #0
	bne	.L1175
	ldr	r4, [sp]
	add	sp, sp, #4
	ldr	pc, [sp], #4
.L1175:
	movw	r0, #:lower16:.LC16
	ldr	r4, [sp]
	ldr	lr, [sp, #4]
	movt	r0, #:upper16:.LC16
	add	sp, sp, #8
	ldr	r1, .L1176
	b	printk
.L1177:
	.align	2
.L1176:
	.word	.LANCHOR2+256
	.fnend
	.size	bam_data_start_endless_rx, .-bam_data_start_endless_rx
	.align	2
	.syntax unified
	.arm
	.fpu softvfp
	.type	bam_data_start_endless_tx, %function
bam_data_start_endless_tx:
	.fnstart
	@ args = 0, pretend = 0, frame = 0
	@ frame_needed = 0, uses_anonymous_args = 0
	ldr	r2, [r0, #4]
	cmp	r2, #0
	bxeq	lr
	.save {r4, lr}
	str	r4, [sp, #-8]!
	mov	r3, r0
	str	lr, [sp, #4]
	ldr	r0, [r2, #8]
	mov	r2, #32
	ldr	r1, [r3, #40]
	ldr	r3, [r0, #8]
	ldr	r3, [r3, #16]
	blx	r3
	subs	r2, r0, #0
	bne	.L1189
	ldr	r4, [sp]
	add	sp, sp, #4
	ldr	pc, [sp], #4
.L1189:
	movw	r0, #:lower16:.LC16
	ldr	r4, [sp]
	ldr	lr, [sp, #4]
	movt	r0, #:upper16:.LC16
	add	sp, sp, #8
	ldr	r1, .L1190
	b	printk
.L1191:
	.align	2
.L1190:
	.word	.LANCHOR2+284
	.fnend
	.size	bam_data_start_endless_tx, .-bam_data_start_endless_tx
	.align	2
	.syntax unified
	.arm
	.fpu softvfp
	.type	bam_data_start, %function
bam_data_start:
	.fnstart
	@ args = 0, pretend = 0, frame = 0
	@ frame_needed = 0, uses_anonymous_args = 0
	@ link register save eliminated.
	cmp	r1, #0
	beq	.L1194
	b	bam_data_start_endless_tx
.L1194:
	b	bam_data_start_endless_rx
	.fnend
	.size	bam_data_start, .-bam_data_start
	.align	2
	.syntax unified
	.arm
	.fpu softvfp
	.type	rndis_qc_response_complete, %function
rndis_qc_response_complete:
	.fnstart
	@ args = 0, pretend = 0, frame = 0
	@ frame_needed = 0, uses_anonymous_args = 0
	strd	r4, [sp, #-16]!
	.save {r4, r5, r6, lr}
	str	r6, [sp, #8]
	str	lr, [sp, #12]
	ldr	r5, [r1, #32]
	.pad #8
	sub	sp, sp, #8
	ldr	r3, [r1, #44]
	ldr	r2, [r5, #20]
	cmp	r2, #0
	beq	.L1196
	ldr	r2, [r2, #24]
	cmp	r2, #0
	beq	.L1196
	cmn	r3, #104
	beq	.L1199
	cmp	r3, #0
	mov	r6, r0
	mov	r4, r1
	bne	.L1224
.L1200:
	ldr	r3, [r5, #156]
	cmp	r3, r6
	beq	.L1225
.L1195:
	add	sp, sp, #8
	@ sp needed
	ldrd	r4, [sp]
	ldr	r6, [sp, #8]
	add	sp, sp, #12
	ldr	pc, [sp], #4
.L1224:
	cmn	r3, #108
	beq	.L1199
	ldr	r1, [r1, #4]
	movw	r0, #:lower16:.LC25
	ldr	ip, [r4, #48]
	movt	r0, #:upper16:.LC25
	ldr	r2, [r6, #4]
	str	ip, [sp]
	str	r1, [sp, #4]
	ldr	r1, .L1226
	bl	printk
	b	.L1200
.L1199:
	mov	r3, #0
	str	r3, [r5, #164]
	b	.L1195
.L1225:
	add	r6, r5, #164
	.syntax divided
@ 99 "/home/Jprimero15/hlte/lolz/arch/arm/include/asm/atomic.h" 1
	dmb
@ 0 "" 2
@ 101 "/home/Jprimero15/hlte/lolz/arch/arm/include/asm/atomic.h" 1
	@ atomic_sub_return
1:	ldrex	r3, [r6]
	sub	r3, r3, #1
	strex	r2, r3, [r6]
	teq	r2, #0
	bne	1b
@ 0 "" 2
@ 111 "/home/Jprimero15/hlte/lolz/arch/arm/include/asm/atomic.h" 1
	dmb
@ 0 "" 2
	.arm
	.syntax unified
	cmp	r3, #0
	beq	.L1195
	ldr	r0, [r5, #156]
	mov	r1, r4
	mov	r2, #32
	ldr	r3, [r0, #8]
	ldr	r3, [r3, #16]
	blx	r3
	cmp	r0, #0
	beq	.L1195
	.syntax divided
@ 83 "/home/Jprimero15/hlte/lolz/arch/arm/include/asm/atomic.h" 1
	@ atomic_sub
1:	ldrex	r3, [r6]
	sub	r3, r3, #1
	strex	r2, r3, [r6]
	teq	r2, #0
	bne	1b
@ 0 "" 2
	.arm
	.syntax unified
	b	.L1195
.L1196:
	ldr	r2, .L1226
	movw	r0, #:lower16:.LC24
	movt	r0, #:upper16:.LC24
	mov	r1, r2
	add	sp, sp, #8
	@ sp needed
	ldrd	r4, [sp]
	ldr	r6, [sp, #8]
	ldr	lr, [sp, #12]
	add	sp, sp, #16
	b	printk
.L1227:
	.align	2
.L1226:
	.word	.LANCHOR2+312
	.fnend
	.size	rndis_qc_response_complete, .-rndis_qc_response_complete
	.align	2
	.syntax unified
	.arm
	.fpu softvfp
	.type	rndis_qc_response_available, %function
rndis_qc_response_available:
	.fnstart
	@ args = 0, pretend = 0, frame = 0
	@ frame_needed = 0, uses_anonymous_args = 0
	strd	r4, [sp, #-16]!
	.save {r4, r5, r6, lr}
	add	r5, r0, #164
	str	r6, [sp, #8]
	str	lr, [sp, #12]
	ldr	r1, [r0, #160]
	ldr	ip, [r1]
	.syntax divided
@ 61 "/home/Jprimero15/hlte/lolz/arch/arm/include/asm/atomic.h" 1
	dmb
@ 0 "" 2
@ 63 "/home/Jprimero15/hlte/lolz/arch/arm/include/asm/atomic.h" 1
	@ atomic_add_return
1:	ldrex	r3, [r5]
	add	r3, r3, #1
	strex	r2, r3, [r5]
	teq	r2, #0
	bne	1b
@ 0 "" 2
@ 73 "/home/Jprimero15/hlte/lolz/arch/arm/include/asm/atomic.h" 1
	dmb
@ 0 "" 2
	.arm
	.syntax unified
	cmp	r3, #1
	bne	.L1228
	mov	r4, r0
	mov	r0, #0
	str	r3, [ip]
	mov	r2, #32
	str	r0, [ip, #4]
	ldr	r0, [r4, #156]
	ldr	r3, [r0, #8]
	ldr	r3, [r3, #16]
	blx	r3
	subs	r2, r0, #0
	bne	.L1236
.L1228:
	ldrd	r4, [sp]
	ldr	r6, [sp, #8]
	add	sp, sp, #12
	ldr	pc, [sp], #4
.L1236:
	.syntax divided
@ 83 "/home/Jprimero15/hlte/lolz/arch/arm/include/asm/atomic.h" 1
	@ atomic_sub
1:	ldrex	r3, [r5]
	sub	r3, r3, #1
	strex	r1, r3, [r5]
	teq	r1, #0
	bne	1b
@ 0 "" 2
	.arm
	.syntax unified
	movw	r0, #:lower16:.LC26
	ldrd	r4, [sp]
	ldr	r6, [sp, #8]
	movt	r0, #:upper16:.LC26
	ldr	lr, [sp, #12]
	add	sp, sp, #16
	ldr	r1, .L1237
	b	printk
.L1238:
	.align	2
.L1237:
	.word	.LANCHOR2+340
	.fnend
	.size	rndis_qc_response_available, .-rndis_qc_response_available
	.align	2
	.syntax unified
	.arm
	.fpu softvfp
	.type	f_audio_buffer_alloc, %function
f_audio_buffer_alloc:
	.fnstart
	@ args = 0, pretend = 0, frame = 0
	@ frame_needed = 0, uses_anonymous_args = 0
	movw	r3, #:lower16:kmalloc_caches
	strd	r4, [sp, #-16]!
	.save {r4, r5, r6, lr}
	mov	r5, r0
	movt	r3, #:upper16:kmalloc_caches
	str	r6, [sp, #8]
	str	lr, [sp, #12]
	ldr	r0, [r3, #24]
	cmp	r0, #0
	beq	.L1242
	mov	r2, #16
	movw	r1, #32800
	bl	kmem_cache_alloc_trace
	subs	r4, r0, #0
	beq	.L1244
.L1240:
	mov	r0, r5
	movw	r1, #32800
	bl	__kmalloc
	cmp	r0, #0
	str	r0, [r4]
	beq	.L1245
.L1239:
	mov	r0, r4
	ldrd	r4, [sp]
	ldr	r6, [sp, #8]
	add	sp, sp, #12
	ldr	pc, [sp], #4
.L1242:
	mov	r4, #16
	b	.L1240
.L1245:
	movw	r0, #:lower16:.LC28
	ldr	r1, .L1246
	movt	r0, #:upper16:.LC28
	bl	printk
	mov	r0, r4
	mvn	r4, #11
	bl	kfree
	b	.L1239
.L1244:
	movw	r0, #:lower16:.LC27
	ldr	r1, .L1246
	mvn	r4, #11
	movt	r0, #:upper16:.LC27
	bl	printk
	b	.L1239
.L1247:
	.align	2
.L1246:
	.word	.LANCHOR2+368
	.fnend
	.size	f_audio_buffer_alloc, .-f_audio_buffer_alloc
	.align	2
	.syntax unified
	.arm
	.fpu softvfp
	.type	f_audio_setup, %function
f_audio_setup:
	.fnstart
	@ args = 0, pretend = 0, frame = 8
	@ frame_needed = 0, uses_anonymous_args = 0
	strd	r4, [sp, #-24]!
	.save {r4, r5, r6, r7, r8, lr}
	strd	r6, [sp, #8]
	mov	r7, r0
	str	r8, [sp, #16]
	str	lr, [sp, #20]
	ldr	r3, [r0, #20]
	.pad #24
	sub	sp, sp, #24
	ldrb	r2, [r1]	@ zero_extendqisi2
	ldrh	ip, [r1, #4]	@ unaligned
	ldrh	lr, [r1, #2]	@ unaligned
	ldr	r6, [r3, #24]
	cmp	r2, #34
	ldrh	r5, [r1, #6]	@ unaligned
	ldrb	r3, [r1, #1]	@ zero_extendqisi2
	ldr	r4, [r6, #4]
	beq	.L1250
	bls	.L1307
	cmp	r2, #161
	beq	.L1253
	cmp	r2, #162
	bne	.L1249
	ldr	r2, [r7, #260]!
	and	ip, ip, #127
	lsr	lr, lr, #8
	cmp	r7, r2
	beq	.L1270
	ldrb	r1, [r2, #16]	@ zero_extendqisi2
	cmp	r1, ip
	bne	.L1290
.L1282:
	ldr	ip, [r2, #8]!
	cmp	r2, ip
	beq	.L1270
	ldrb	r1, [ip, #12]	@ zero_extendqisi2
	cmp	r1, lr
	beq	.L1285
.L1289:
	ldr	ip, [ip]
	cmp	r2, ip
	beq	.L1270
	ldrb	r1, [ip, #12]	@ zero_extendqisi2
	cmp	lr, r1
	bne	.L1289
.L1285:
	and	r3, r3, #15
	sub	r2, r3, #1
	cmp	r2, #3
	bhi	.L1270
	add	r3, r3, #4
	add	r1, sp, #24
	ldr	r0, [r4]
	ldr	r3, [ip, r3, lsl #2]
	mov	r2, r5
	str	r3, [r1, #-4]!
	bl	memcpy
	b	.L1262
.L1253:
	ldr	r2, [r0, #252]!
	mvn	r1, #94
	lsr	ip, ip, #8
	str	r1, [sp, #20]
	cmp	r2, r0
	beq	.L1263
	ldrb	r1, [r2, #16]	@ zero_extendqisi2
	cmp	r1, ip
	bne	.L1265
	b	.L1264
.L1268:
	ldrb	r1, [r2, #16]	@ zero_extendqisi2
	cmp	ip, r1
	beq	.L1264
.L1265:
	ldr	r2, [r2]
	cmp	r2, r0
	bne	.L1268
.L1263:
	movw	r3, #:lower16:f_audio_complete
	mov	r2, r5
	ldr	r0, [r4]
	movt	r3, #:upper16:f_audio_complete
	add	r1, sp, #20
	str	r3, [r4, #28]
	str	r7, [r4, #32]
	bl	memcpy
.L1262:
	ldrb	r3, [r4, #26]	@ zero_extendqisi2
	str	r5, [r4, #4]
	mov	r1, r4
	mov	r2, #32
	orr	r3, r3, #2
	strb	r3, [r4, #26]
	ldr	r3, [r6]
	ldr	r0, [r3, #4]
	ldr	r3, [r0, #8]
	ldr	r3, [r3, #16]
	blx	r3
	subs	r4, r0, #0
	blt	.L1308
.L1248:
	mov	r0, r4
	add	sp, sp, #24
	@ sp needed
	ldrd	r4, [sp]
	ldrd	r6, [sp, #8]
	ldr	r8, [sp, #16]
	add	sp, sp, #20
	ldr	pc, [sp], #4
.L1283:
	ldrb	r1, [r2, #16]	@ zero_extendqisi2
	cmp	ip, r1
	beq	.L1282
.L1290:
	ldr	r2, [r2]
	cmp	r7, r2
	bne	.L1283
	b	.L1270
.L1307:
	cmp	r2, #33
	bne	.L1249
	mov	r8, r0
	lsr	ip, ip, #8
	ldr	r2, [r8, #252]!
	and	r3, r3, #15
	cmp	r2, r8
	beq	.L1255
	ldrb	r1, [r2, #16]	@ zero_extendqisi2
	cmp	r1, ip
	bne	.L1257
	b	.L1256
.L1261:
	ldrb	r0, [r2, #16]	@ zero_extendqisi2
	cmp	ip, r0
	beq	.L1256
.L1257:
	ldr	r2, [r2]
	cmp	r2, r8
	bne	.L1261
.L1255:
	movw	r2, #:lower16:f_audio_complete
	strb	r3, [r7, #268]
	movt	r2, #:upper16:f_audio_complete
	str	r2, [r4, #28]
	str	r7, [r4, #32]
	b	.L1262
.L1250:
	mov	r1, r0
	and	ip, ip, #127
	ldr	r2, [r1, #260]!
	lsr	lr, lr, #8
	cmp	r1, r2
	beq	.L1270
	ldrb	r0, [r2, #16]	@ zero_extendqisi2
	cmp	r0, ip
	bne	.L1279
.L1271:
	ldr	r0, [r2, #8]!
	cmp	r0, r2
	beq	.L1270
	ldrb	r1, [r0, #12]	@ zero_extendqisi2
	cmp	r1, lr
	beq	.L1274
.L1278:
	ldr	r0, [r0]
	cmp	r0, r2
	beq	.L1270
	ldrb	r1, [r0, #12]	@ zero_extendqisi2
	cmp	lr, r1
	bne	.L1278
.L1274:
	ands	r3, r3, #15
	beq	.L1276
	cmp	r3, #4
	bls	.L1277
	cmp	r3, #5
	bne	.L1276
.L1270:
	movw	r0, #:lower16:.LC32
	ldr	r1, .L1309
	mvn	r4, #94
	movt	r0, #:upper16:.LC32
	bl	printk
	b	.L1248
.L1272:
	ldrb	r0, [r2, #16]	@ zero_extendqisi2
	cmp	ip, r0
	beq	.L1271
.L1279:
	ldr	r2, [r2]
	cmp	r1, r2
	bne	.L1272
	b	.L1270
.L1264:
	ldr	r0, [r2, #8]!
	cmp	r0, r2
	beq	.L1263
	lsr	lr, lr, #8
	b	.L1267
.L1266:
	ldr	r0, [r0]
	cmp	r0, r2
	beq	.L1263
.L1267:
	ldrb	r1, [r0, #12]	@ zero_extendqisi2
	cmp	r1, lr
	bne	.L1266
	ldr	r8, [r0, #40]
	cmp	r8, #0
	beq	.L1266
	and	r1, r3, #15
	blx	r8
	str	r0, [sp, #20]
	b	.L1263
.L1256:
	ldr	r0, [r2, #8]!
	cmp	r0, r2
	beq	.L1255
	ldrb	r1, [r0, #12]	@ zero_extendqisi2
	lsr	lr, lr, #8
	cmp	r1, lr
	bne	.L1259
	b	.L1258
.L1260:
	ldrb	ip, [r0, #12]	@ zero_extendqisi2
	cmp	lr, ip
	beq	.L1258
.L1259:
	ldr	r0, [r0]
	cmp	r0, r2
	bne	.L1260
	b	.L1255
.L1277:
	movw	r2, #:lower16:audio_set_endpoint_complete
	strb	r3, [r7, #268]
	movt	r2, #:upper16:audio_set_endpoint_complete
	str	r0, [r7, #272]
	str	r2, [r4, #28]
	str	r7, [r4, #32]
	b	.L1262
.L1258:
	str	r0, [r7, #272]
	b	.L1255
.L1249:
	movw	r0, #:lower16:.LC30
	ldr	r1, .L1309
	str	lr, [sp]
	str	ip, [sp, #4]
	movt	r0, #:upper16:.LC30
	str	r5, [sp, #8]
	bl	printk
	b	.L1270
.L1308:
	movw	r0, #:lower16:.LC31
	mov	r2, r4
	ldr	r1, .L1309
	movt	r0, #:upper16:.LC31
	bl	printk
	b	.L1248
.L1276:
	movw	r0, #:lower16:.LC29
	ldr	r1, .L1309+4
	movt	r0, #:upper16:.LC29
	bl	printk
	b	.L1270
.L1310:
	.align	2
.L1309:
	.word	.LANCHOR2+416
	.word	.LANCHOR2+392
	.fnend
	.size	f_audio_setup, .-f_audio_setup
	.align	2
	.syntax unified
	.arm
	.fpu softvfp
	.type	conn_gadget_release, %function
conn_gadget_release:
	.fnstart
	@ args = 0, pretend = 0, frame = 0
	@ frame_needed = 0, uses_anonymous_args = 0
	strd	r4, [sp, #-24]!
	.save {r4, r5, r6, r7, r8, lr}
	movw	r0, #:lower16:.LC33
	movw	r4, #:lower16:.LANCHOR1
	movt	r4, #:upper16:.LANCHOR1
	movt	r0, #:upper16:.LC33
	strd	r6, [sp, #8]
	str	r8, [sp, #16]
	str	lr, [sp, #20]
	bl	printk
	ldr	r0, [r4, #2500]
	add	r0, r0, #88
	bl	_raw_spin_lock_irqsave
	mov	r1, r0
	ldr	r0, [r4, #2500]
	mov	r3, r0
	ldr	ip, [r3, #136]!
	cmp	ip, r3
	bne	.L1316
.L1312:
	add	r0, r0, #88
	bl	_raw_spin_unlock_irqrestore
	ldr	r3, [r4, #2500]
	mov	r0, #0
	add	r2, r3, #116
	str	r0, [r3, #216]
	.syntax divided
@ 83 "/home/Jprimero15/hlte/lolz/arch/arm/include/asm/atomic.h" 1
	@ atomic_sub
1:	ldrex	r1, [r2]
	sub	r1, r1, #1
	strex	ip, r1, [r2]
	teq	ip, #0
	bne	1b
@ 0 "" 2
	.arm
	.syntax unified
	ldrd	r4, [sp]
	ldrd	r6, [sp, #8]
	ldr	r8, [sp, #16]
	add	sp, sp, #20
	ldr	pc, [sp], #4
.L1316:
	ldr	r6, [ip]
	sub	r3, ip, #36
	movw	r7, #:lower16:.LC34
	mov	r5, r3
	movt	r7, #:upper16:.LC34
	sub	r6, r6, #36
.L1313:
	add	r0, r0, #88
	bl	_raw_spin_unlock_irqrestore
	mov	r0, r7
	bl	printk
	ldr	r3, [r4, #2500]
	mov	r1, r5
	mov	r5, r6
	ldr	r0, [r3, #96]
	ldr	r3, [r0, #8]
	ldr	r3, [r3, #20]
	blx	r3
	ldr	r0, [r4, #2500]
	add	r0, r0, #88
	bl	_raw_spin_lock_irqsave
	mov	r1, r0
	ldr	r0, [r4, #2500]
	ldr	r3, [r6, #36]!
	add	r2, r0, #136
	cmp	r6, r2
	sub	r6, r3, #36
	beq	.L1312
	b	.L1313
	.fnend
	.size	conn_gadget_release, .-conn_gadget_release
	.align	2
	.syntax unified
	.arm
	.fpu softvfp
	.type	ncm_setup, %function
ncm_setup:
	.fnstart
	@ args = 0, pretend = 0, frame = 0
	@ frame_needed = 0, uses_anonymous_args = 0
	strd	r4, [sp, #-20]!
	.save {r4, r5, r6, r7, lr}
	mov	r4, r1
	movw	ip, #8586
	strd	r6, [sp, #8]
	str	lr, [sp, #16]
	ldrh	r3, [r1]	@ unaligned
	mov	lr, r0
	ldrh	r7, [r1, #4]	@ unaligned
	.pad #12
	sub	sp, sp, #12
	ldrh	r2, [r1, #6]	@ unaligned
	ldr	r1, [r0, #20]
	rev16	r3, r3
	ldrh	r0, [r4, #2]	@ unaligned
	uxth	r3, r3
	ldr	r5, [r1, #24]
	cmp	r3, ip
	uxth	r1, r0
	ldr	r6, [r5, #4]
	beq	.L1319
	bls	.L1364
	movw	r0, #41349
	cmp	r3, r0
	beq	.L1326
	bhi	.L1327
	movw	r0, #41344
	cmp	r3, r0
	beq	.L1328
	movw	r0, #41347
	cmp	r3, r0
	bne	.L1360
	adds	r1, r1, #0
	movne	r1, #1
	cmp	r2, #1
	movhi	r2, r1
	orrls	r2, r1, #1
	cmp	r2, #0
	bne	.L1360
	ldrb	r3, [lr, #148]	@ zero_extendqisi2
	cmp	r3, r7
	bne	.L1360
	ldr	r3, [lr, #176]
	mov	r1, #2
	ldr	ip, .L1368
	ldr	r0, [r6]
	subs	r3, r3, ip
	movne	r3, #1
	strb	r3, [r0]
	strb	r2, [r0, #1]
	b	.L1332
.L1364:
	movw	ip, #8580
	cmp	r3, ip
	beq	.L1321
	bls	.L1365
	movw	r0, #8582
	cmp	r3, r0
	beq	.L1324
	movw	r0, #8584
	cmp	r3, r0
	bne	.L1360
	cmp	r1, #0
	cmpeq	r2, #2
	bne	.L1360
	ldrb	r3, [lr, #148]	@ zero_extendqisi2
	cmp	r3, r7
	bne	.L1360
	movw	r3, #:lower16:ncm_setdgram_complete
	mov	r1, #2
	str	lr, [r6, #32]
	movt	r3, #:upper16:ncm_setdgram_complete
	str	r3, [r6, #28]
.L1332:
	ldrb	r3, [r6, #26]	@ zero_extendqisi2
	str	r1, [r6, #4]
	mov	r2, #32
	mov	r1, r6
	bfc	r3, #1, #1
	strb	r3, [r6, #26]
	ldr	r3, [r5]
	ldr	r0, [r3, #4]
	ldr	r3, [r0, #8]
	ldr	r3, [r3, #16]
	blx	r3
	subs	r6, r0, #0
	blt	.L1366
.L1317:
	mov	r0, r6
	add	sp, sp, #12
	@ sp needed
	ldrd	r4, [sp]
	ldrd	r6, [sp, #8]
	add	sp, sp, #16
	ldr	pc, [sp], #4
.L1327:
	movw	r0, #41351
	cmp	r3, r0
	beq	.L1330
	movw	r0, #41353
	cmp	r3, r0
	bne	.L1360
	adds	r1, r1, #0
	movne	r1, #1
	cmp	r2, #1
	movhi	r2, r1
	orrls	r2, r1, #1
	cmp	r2, #0
	bne	.L1360
	ldrb	r3, [lr, #148]	@ zero_extendqisi2
	cmp	r3, r7
	bne	.L1360
	ldrb	r0, [lr, #180]	@ zero_extendqisi2
	mov	r1, #2
	ldr	r3, [r6]
	strb	r0, [r3]
	strb	r2, [r3, #1]
	b	.L1332
.L1330:
	adds	r1, r1, #0
	movne	r1, #1
	cmp	r2, #1
	orrls	r1, r1, #1
	cmp	r1, #0
	bne	.L1360
	ldrb	r3, [lr, #148]	@ zero_extendqisi2
	cmp	r3, r7
	beq	.L1367
.L1360:
	mvn	r6, #94
	b	.L1317
.L1324:
	cmp	r1, #0
	cmpeq	r2, #4
	bne	.L1360
	ldrb	r3, [lr, #148]	@ zero_extendqisi2
	cmp	r3, r7
	bne	.L1360
	movw	r3, #:lower16:ncm_ep0out_complete
	mov	r1, #4
	str	lr, [r6, #32]
	movt	r3, #:upper16:ncm_ep0out_complete
	str	r3, [r6, #28]
	b	.L1332
.L1328:
	adds	r1, r1, #0
	movne	r1, #1
	cmp	r2, #0
	moveq	r1, #1
	cmp	r1, #0
	bne	.L1360
	ldrb	r3, [lr, #148]	@ zero_extendqisi2
	cmp	r3, r7
	bne	.L1360
	cmp	r2, #28
	ldr	r1, .L1368+4
	movcc	r7, r2
	movcs	r7, #28
	ldr	r0, [r6]
	mov	r2, r7
	bl	memcpy
	mov	r1, r7
	b	.L1332
.L1366:
	ldr	r0, [r5]
	movw	r1, #:lower16:.LC36
	str	r6, [sp]
	movt	r1, #:upper16:.LC36
	ldrb	r3, [r4, #1]	@ zero_extendqisi2
	ldrb	r2, [r4]	@ zero_extendqisi2
	add	r0, r0, #32
	bl	dev_err
	b	.L1317
.L1365:
	movw	r1, #8515
	cmp	r3, r1
	bne	.L1360
	cmp	r2, #0
	bne	.L1360
	ldrb	r3, [lr, #148]	@ zero_extendqisi2
	cmp	r3, r7
	bne	.L1360
	mov	r1, r2
	strh	r0, [lr, #98]	@ movhi
	b	.L1332
.L1321:
	cmp	r2, #0
	bne	.L1360
	ldrb	r3, [lr, #148]	@ zero_extendqisi2
	cmp	r3, r7
	bne	.L1360
	cmp	r1, #0
	beq	.L1333
	cmp	r1, #1
	bne	.L1360
	ldr	r3, .L1368+8
	mov	r1, r2
	str	r3, [lr, #176]
	b	.L1332
.L1326:
	adds	r1, r1, #0
	movne	r1, #1
	cmp	r2, #3
	orrls	r1, r1, #1
	cmp	r1, #0
	bne	.L1360
	ldrb	r3, [lr, #148]	@ zero_extendqisi2
	cmp	r3, r7
	bne	.L1360
	ldr	r2, [lr, #112]
	mov	r1, #4
	ldr	r3, [r6]
	lsr	r0, r2, #16
	ubfx	ip, r2, #8, #8
	strb	r2, [r3]
	lsr	r2, r0, #8
	strb	ip, [r3, #1]
	strb	r0, [r3, #2]
	strb	r2, [r3, #3]
	b	.L1332
.L1319:
	cmp	r2, #0
	bne	.L1360
	ldrb	r3, [lr, #148]	@ zero_extendqisi2
	cmp	r3, r7
	bne	.L1360
	cmp	r1, #0
	beq	.L1335
	cmp	r1, #1
	bne	.L1360
	mov	ip, #16777216
	strb	r1, [lr, #180]
.L1337:
	ldr	r0, [lr, #176]
	mov	r1, #0
	ldr	r2, [r0, #4]
	bic	r2, r2, #16777216
	str	r2, [r0, #4]
	ldr	r2, [lr, #176]
	ldr	r3, [r2, #4]
	orr	r3, r3, ip
	str	r3, [r2, #4]
	b	.L1332
.L1335:
	mov	ip, r1
	strb	r1, [lr, #180]
	b	.L1337
.L1333:
	ldr	r3, .L1368
	str	r3, [lr, #176]
	b	.L1332
.L1367:
	ldrh	r2, [lr, #182]
	movw	r0, #:lower16:.LC35
	ldr	r3, [r6]
	movt	r0, #:upper16:.LC35
	ldr	r1, .L1368+12
	lsr	ip, r2, #8
	strb	r2, [r3]
	strb	ip, [r3, #1]
	ldrh	r2, [lr, #182]
	bl	printk
	mov	r1, #2
	b	.L1332
.L1369:
	.align	2
.L1368:
	.word	.LANCHOR0+76
	.word	.LANCHOR0+20
	.word	.LANCHOR0+120
	.word	.LANCHOR2+432
	.fnend
	.size	ncm_setup, .-ncm_setup
	.align	2
	.syntax unified
	.arm
	.fpu softvfp
	.type	ncm_setdgram_complete, %function
ncm_setdgram_complete:
	.fnstart
	@ args = 0, pretend = 0, frame = 0
	@ frame_needed = 0, uses_anonymous_args = 0
	movw	r3, #:lower16:.LANCHOR0
	strd	r4, [sp, #-16]!
	.save {r4, r5, r6, lr}
	mov	r4, r0
	movt	r3, #:upper16:.LANCHOR0
	str	r6, [sp, #8]
	mov	r5, #0
	str	lr, [sp, #12]
	ldr	r2, [r3, #24]
	ldr	r0, [r3, #36]
	ldr	ip, [r1, #32]
	str	r5, [r1, #32]
	ldr	lr, [r1, #44]
	cmp	r0, r2
	movcs	r0, r2
	cmp	lr, r5
	bne	.L1371
	ldr	r2, [r1, #4]
	ldr	lr, [r1, #48]
	cmp	lr, r2
	bne	.L1371
	ldr	r1, [r1]
	movw	lr, #7500
	ldrb	r5, [r1, #1]	@ zero_extendqisi2
	ldrb	r2, [r1]	@ zero_extendqisi2
	orr	r2, r2, r5, lsl #8
	sub	r1, r2, #1504
	sub	r1, r1, #10
	cmp	r1, lr
	bhi	.L1381
	ldrh	r1, [r3, #44]
	add	r3, r1, #11
	rsb	r1, r1, #0
	and	r3, r3, r1
	add	r3, r3, #12
	add	r3, r3, r2
	cmp	r3, r0
	bhi	.L1382
	ldr	r3, [ip, #184]
	strh	r2, [ip, #182]	@ movhi
	movw	r0, #:lower16:.LC41
	movt	r0, #:upper16:.LC41
	cmp	r3, #0
	subne	r1, r2, #14
	strne	r1, [r3, #356]
	ldr	r1, .L1383
	ldrd	r4, [sp]
	ldr	r6, [sp, #8]
	ldr	lr, [sp, #12]
	add	sp, sp, #16
	b	printk
.L1382:
	movw	r0, #:lower16:.LC39
	ldr	r1, .L1383
	movt	r0, #:upper16:.LC39
	bl	printk
	movw	r0, #:lower16:.LC40
	movt	r0, #:upper16:.LC40
	bl	printk
.L1373:
	ldr	r3, [r4, #8]
	mov	r0, r4
	mov	r1, #1
	ldrd	r4, [sp]
	ldr	r6, [sp, #8]
	ldr	lr, [sp, #12]
	add	sp, sp, #16
	ldr	r3, [r3, #24]
	bx	r3
.L1371:
	movw	r0, #:lower16:.LC37
	ldr	r1, .L1383
	movt	r0, #:upper16:.LC37
	bl	printk
	b	.L1373
.L1381:
	movw	r0, #:lower16:.LC38
	ldr	r1, .L1383
	movt	r0, #:upper16:.LC38
	bl	printk
	b	.L1373
.L1384:
	.align	2
.L1383:
	.word	.LANCHOR2+444
	.fnend
	.size	ncm_setdgram_complete, .-ncm_setdgram_complete
	.align	2
	.syntax unified
	.arm
	.fpu softvfp
	.type	android_enable_function, %function
android_enable_function:
	.fnstart
	@ args = 0, pretend = 0, frame = 8
	@ frame_needed = 0, uses_anonymous_args = 0
	strd	r4, [sp, #-36]!
	.save {r4, r5, r6, r7, r8, r9, r10, fp, lr}
	strd	r6, [sp, #8]
	strd	r8, [sp, #16]
	mov	r9, r2
	movw	r8, #:lower16:.LC42
	strd	r10, [sp, #24]
	movt	r8, #:upper16:.LC42
	mov	fp, r0
	str	lr, [sp, #32]
	.pad #12
	sub	sp, sp, #12
	ldr	r6, [r0, #4]
	ldr	r2, [r0, #8]
	mov	r10, r1
	ldr	r3, [r0, #44]
	sub	r6, r6, #4
	str	r3, [sp]
	ldr	r3, [r2]
	str	r3, [sp, #4]
.L1386:
	ldr	r5, [r6, #4]!
	mov	r0, r9
	cmp	r5, #0
	beq	.L1397
	ldr	r4, [r5]
	mov	r1, r4
	bl	strcmp
	subs	r7, r0, #0
	bne	.L1386
	ldr	r1, [r5, #20]
	cmp	r1, fp
	cmpne	r1, #0
	bne	.L1398
	movw	r2, #:lower16:kmalloc_caches
	movt	r2, #:upper16:kmalloc_caches
	ldr	r0, [r2, #24]
	cmp	r0, #0
	beq	.L1394
	mov	r2, #12
	movw	r1, #32976
	bl	kmem_cache_alloc_trace
	cmp	r0, #0
	beq	.L1399
.L1389:
	str	fp, [r5, #20]
	add	r2, r10, #112
	str	r5, [r0], #4
	ldr	r1, [r10, #116]
	bl	__list_add
	ldr	r2, [sp]
	ldr	r6, [r5]
	ldr	r3, [r2, #44]
	cmp	r3, #0
	ble	.L1385
	add	r3, r3, r3, lsl #2
	add	r4, r2, #12
	add	r5, r4, r3, lsl #1
	b	.L1392
.L1391:
	cmp	r4, r5
	beq	.L1385
.L1392:
	mov	r1, r4
	mov	r0, r6
	bl	strcmp
	cmp	r0, #0
	add	r4, r4, #10
	bne	.L1391
	ldr	r2, [sp, #4]
	mov	r3, #1
	mov	r7, r0
	strb	r3, [r2, #378]
.L1385:
	mov	r0, r7
	add	sp, sp, #12
	@ sp needed
	ldrd	r4, [sp]
	ldrd	r6, [sp, #8]
	ldrd	r8, [sp, #16]
	ldrd	r10, [sp, #24]
	add	sp, sp, #32
	ldr	pc, [sp], #4
.L1394:
	mov	r0, #16
	b	.L1389
.L1397:
	mvn	r7, #21
	b	.L1385
.L1398:
	mov	r2, r4
	ldr	r1, .L1400
	mov	r0, r8
	bl	printk
	b	.L1386
.L1399:
	movw	r0, #:lower16:.LC43
	ldr	r1, .L1400
	mvn	r7, #11
	movt	r0, #:upper16:.LC43
	bl	printk
	b	.L1385
.L1401:
	.align	2
.L1400:
	.word	.LANCHOR2+468
	.fnend
	.size	android_enable_function, .-android_enable_function
	.align	2
	.syntax unified
	.arm
	.fpu softvfp
	.type	acc_complete_set_string, %function
acc_complete_set_string:
	.fnstart
	@ args = 0, pretend = 0, frame = 0
	@ frame_needed = 0, uses_anonymous_args = 0
	strd	r4, [sp, #-24]!
	.save {r4, r5, r6, r7, r8, lr}
	strd	r6, [sp, #8]
	str	r8, [sp, #16]
	str	lr, [sp, #20]
	ldr	r3, [r1, #44]
	ldr	r0, [r0]
	ldr	r6, [r1, #48]
	cmp	r3, #0
	movwne	r0, #:lower16:.LC44
	movne	r1, r3
	movtne	r0, #:upper16:.LC44
	bne	.L1417
	ldr	r3, [r0, #1640]
	cmp	r3, #5
	ldrls	pc, [pc, r3, asl #2]
	b	.L1404
.L1406:
	.word	.L1405
	.word	.L1407
	.word	.L1408
	.word	.L1409
	.word	.L1410
	.word	.L1411
.L1411:
	add	r7, r0, #1376
	add	r7, r7, #5
.L1412:
	cmp	r7, #0
	beq	.L1404
	add	r4, r0, #88
	mov	r5, r1
	mov	r0, r4
	bl	_raw_spin_lock_irqsave
	cmp	r6, #255
	mov	r8, r0
	ldr	r1, [r5]
	movge	r6, #255
	mov	r0, r7
	mov	r2, r6
	bl	memcpy
	mov	r3, #0
	mov	r1, r8
	mov	r0, r4
	strb	r3, [r7, r6]
	ldrd	r4, [sp]
	ldrd	r6, [sp, #8]
	ldr	r8, [sp, #16]
	ldr	lr, [sp, #20]
	add	sp, sp, #24
	b	_raw_spin_unlock_irqrestore
.L1405:
	add	r7, r0, #101
	b	.L1412
.L1407:
	add	r7, r0, #356
	add	r7, r7, #1
	b	.L1412
.L1408:
	add	r7, r0, #612
	add	r7, r7, #1
	b	.L1412
.L1409:
	add	r7, r0, #868
	add	r7, r7, #1
	b	.L1412
.L1410:
	add	r7, r0, #1120
	add	r7, r7, #5
	b	.L1412
.L1404:
	movw	r0, #:lower16:.LC45
	mov	r1, r3
	movt	r0, #:upper16:.LC45
.L1417:
	ldrd	r4, [sp]
	ldrd	r6, [sp, #8]
	ldr	r8, [sp, #16]
	ldr	lr, [sp, #20]
	add	sp, sp, #24
	b	printk
	.fnend
	.size	acc_complete_set_string, .-acc_complete_set_string
	.align	2
	.syntax unified
	.arm
	.fpu softvfp
	.type	acc_release, %function
acc_release:
	.fnstart
	@ args = 0, pretend = 0, frame = 0
	@ frame_needed = 0, uses_anonymous_args = 0
	.save {r4, lr}
	str	r4, [sp, #-8]!
	movw	r0, #:lower16:.LC46
	movw	r4, #:lower16:.LANCHOR1
	movt	r4, #:upper16:.LANCHOR1
	movt	r0, #:upper16:.LC46
	str	lr, [sp, #4]
	bl	printk
	ldr	r3, [r4, #2504]
	add	r3, r3, #1648
	add	r3, r3, #4
	.syntax divided
@ 37 "/home/Jprimero15/hlte/lolz/arch/arm/include/asm/cmpxchg.h" 1
	dmb
@ 0 "" 2
	.arm
	.syntax unified
	mov	r2, #0
	.syntax divided
@ 52 "/home/Jprimero15/hlte/lolz/arch/arm/include/asm/cmpxchg.h" 1
	@	__xchg4
1:	ldrex	r1, [r3]
	strex	r0, r2, [r3]
	teq	r0, #0
	bne	1b
@ 0 "" 2
@ 98 "/home/Jprimero15/hlte/lolz/arch/arm/include/asm/cmpxchg.h" 1
	dmb
@ 0 "" 2
	.arm
	.syntax unified
	cmp	r1, r2
	beq	.L1421
.L1419:
	ldr	r3, [r4, #2504]
	mov	r0, #0
	ldrb	r2, [r3, #100]	@ zero_extendqisi2
	bfc	r2, #1, #1
	strb	r2, [r3, #100]
	ldr	r4, [sp]
	add	sp, sp, #4
	ldr	pc, [sp], #4
.L1421:
	movw	r0, #:lower16:.LC47
	movw	r1, #799
	movt	r0, #:upper16:.LC47
	bl	warn_slowpath_null
	b	.L1419
	.fnend
	.size	acc_release, .-acc_release
	.align	2
	.syntax unified
	.arm
	.fpu softvfp
	.type	acc_open, %function
acc_open:
	.fnstart
	@ args = 0, pretend = 0, frame = 0
	@ frame_needed = 0, uses_anonymous_args = 0
	movw	r0, #:lower16:.LC48
	.save {r4, lr}
	str	r4, [sp, #-8]!
	mov	r4, r1
	movt	r0, #:upper16:.LC48
	str	lr, [sp, #4]
	bl	printk
	movw	r2, #:lower16:.LANCHOR1
	movt	r2, #:upper16:.LANCHOR1
	ldr	r3, [r2, #2504]
	add	r3, r3, #1648
	add	r3, r3, #4
	.syntax divided
@ 37 "/home/Jprimero15/hlte/lolz/arch/arm/include/asm/cmpxchg.h" 1
	dmb
@ 0 "" 2
	.arm
	.syntax unified
	mov	r0, #1
	.syntax divided
@ 52 "/home/Jprimero15/hlte/lolz/arch/arm/include/asm/cmpxchg.h" 1
	@	__xchg4
1:	ldrex	ip, [r3]
	strex	r1, r0, [r3]
	teq	r1, #0
	bne	1b
@ 0 "" 2
@ 98 "/home/Jprimero15/hlte/lolz/arch/arm/include/asm/cmpxchg.h" 1
	dmb
@ 0 "" 2
	.arm
	.syntax unified
	cmp	ip, #0
	bne	.L1424
	ldr	r3, [r2, #2504]
	mov	r0, ip
	ldrb	r2, [r3, #100]	@ zero_extendqisi2
	bfi	r2, ip, #1, #1
	strb	r2, [r3, #100]
	str	r3, [r4, #124]
.L1422:
	ldr	r4, [sp]
	add	sp, sp, #4
	ldr	pc, [sp], #4
.L1424:
	mvn	r0, #15
	b	.L1422
	.fnend
	.size	acc_open, .-acc_open
	.align	2
	.syntax unified
	.arm
	.fpu softvfp
	.type	sua_version_info_store, %function
sua_version_info_store:
	.fnstart
	@ args = 0, pretend = 0, frame = 0
	@ frame_needed = 0, uses_anonymous_args = 0
	strd	r4, [sp, #-16]!
	.save {r4, r5, r6, lr}
	mov	r4, r3
	mov	r5, r2
	str	r6, [sp, #8]
	str	lr, [sp, #12]
	.pad #8
	sub	sp, sp, #8
	bl	dev_get_drvdata
	ldr	r6, [r0, #4]
	cmp	r4, #100
	mov	r1, r5
	movls	r2, r4
	movhi	r2, #100
	ldr	r0, [r6, #96]
	add	r0, r0, #235
	bl	memcpy
	ldr	ip, [r6, #96]
	movw	r0, #:lower16:.LC49
	mov	r2, r5
	ldr	r1, .L1430
	mov	r3, #4
	movt	r0, #:upper16:.LC49
	add	ip, ip, #235
	str	ip, [sp]
	bl	printk
	mov	r0, r4
	add	sp, sp, #8
	@ sp needed
	ldrd	r4, [sp]
	ldr	r6, [sp, #8]
	add	sp, sp, #12
	ldr	pc, [sp], #4
.L1431:
	.align	2
.L1430:
	.word	.LANCHOR2+492
	.fnend
	.size	sua_version_info_store, .-sua_version_info_store
	.align	2
	.syntax unified
	.arm
	.fpu softvfp
	.type	rndis_qc_release_dev, %function
rndis_qc_release_dev:
	.fnstart
	@ args = 0, pretend = 0, frame = 0
	@ frame_needed = 0, uses_anonymous_args = 0
	movw	r0, #:lower16:.LC50
	strd	r4, [sp, #-16]!
	.save {r4, r5, r6, lr}
	ldr	r1, .L1437
	movw	r4, #:lower16:.LANCHOR1
	movt	r0, #:upper16:.LC50
	str	r6, [sp, #8]
	str	lr, [sp, #12]
	movt	r4, #:upper16:.LANCHOR1
	bl	printk
	ldr	r0, .L1437+4
	bl	_raw_spin_lock_irqsave
	ldr	r3, [r4, #2512]
	mov	r5, r0
	cmp	r3, #0
	beq	.L1436
	add	r2, r3, #152
	.syntax divided
@ 83 "/home/Jprimero15/hlte/lolz/arch/arm/include/asm/atomic.h" 1
	@ atomic_sub
1:	ldrex	r1, [r2]
	sub	r1, r1, #1
	strex	r0, r1, [r2]
	teq	r0, #0
	bne	1b
@ 0 "" 2
	.arm
	.syntax unified
	ldr	r0, .L1437+4
	mov	r1, r5
	bl	_raw_spin_unlock_irqrestore
	mov	r0, #0
.L1432:
	ldrd	r4, [sp]
	ldr	r6, [sp, #8]
	add	sp, sp, #12
	ldr	pc, [sp], #4
.L1436:
	movw	r0, #:lower16:.LC51
	ldr	r1, .L1437
	movt	r0, #:upper16:.LC51
	bl	printk
	ldr	r0, .L1437+4
	mov	r1, r5
	bl	_raw_spin_unlock_irqrestore
	mvn	r0, #18
	b	.L1432
.L1438:
	.align	2
.L1437:
	.word	.LANCHOR2+516
	.word	.LANCHOR1+2508
	.fnend
	.size	rndis_qc_release_dev, .-rndis_qc_release_dev
	.align	2
	.syntax unified
	.arm
	.fpu softvfp
	.type	rndis_qc_open_dev, %function
rndis_qc_open_dev:
	.fnstart
	@ args = 0, pretend = 0, frame = 0
	@ frame_needed = 0, uses_anonymous_args = 0
	movw	r0, #:lower16:.LC52
	strd	r4, [sp, #-16]!
	.save {r4, r5, r6, lr}
	movw	r4, #:lower16:.LANCHOR1
	str	r6, [sp, #8]
	movt	r0, #:upper16:.LC52
	mov	r6, r1
	ldr	r1, .L1445
	str	lr, [sp, #12]
	movt	r4, #:upper16:.LANCHOR1
	bl	printk
	ldr	r0, .L1445+4
	bl	_raw_spin_lock_irqsave
	ldr	r3, [r4, #2512]
	mov	r5, r0
	cmp	r3, #0
	beq	.L1444
	add	r2, r3, #152
	.syntax divided
@ 61 "/home/Jprimero15/hlte/lolz/arch/arm/include/asm/atomic.h" 1
	dmb
@ 0 "" 2
@ 63 "/home/Jprimero15/hlte/lolz/arch/arm/include/asm/atomic.h" 1
	@ atomic_add_return
1:	ldrex	r1, [r2]
	add	r1, r1, #1
	strex	r0, r1, [r2]
	teq	r0, #0
	bne	1b
@ 0 "" 2
@ 73 "/home/Jprimero15/hlte/lolz/arch/arm/include/asm/atomic.h" 1
	dmb
@ 0 "" 2
	.arm
	.syntax unified
	cmp	r1, #1
	bne	.L1442
	ldr	r3, [r4, #2512]
	mov	r1, r5
	ldr	r0, .L1445+4
	str	r3, [r6, #124]
	bl	_raw_spin_unlock_irqrestore
	movw	r0, #:lower16:.LC54
	ldr	r1, .L1445
	movt	r0, #:upper16:.LC54
	bl	printk
	mov	r0, #0
.L1439:
	ldrd	r4, [sp]
	ldr	r6, [sp, #8]
	add	sp, sp, #12
	ldr	pc, [sp], #4
.L1444:
	movw	r0, #:lower16:.LC53
	ldr	r1, .L1445
	movt	r0, #:upper16:.LC53
	bl	printk
	ldr	r0, .L1445+4
	mov	r1, r5
	bl	_raw_spin_unlock_irqrestore
	mvn	r0, #18
	b	.L1439
.L1442:
	.syntax divided
@ 83 "/home/Jprimero15/hlte/lolz/arch/arm/include/asm/atomic.h" 1
	@ atomic_sub
1:	ldrex	r1, [r2]
	sub	r1, r1, #1
	strex	r0, r1, [r2]
	teq	r0, #0
	bne	1b
@ 0 "" 2
	.arm
	.syntax unified
	movw	r0, #:lower16:.LC55
	ldr	r1, .L1445
	movt	r0, #:upper16:.LC55
	bl	printk
	ldr	r0, .L1445+4
	mov	r1, r5
	bl	_raw_spin_unlock_irqrestore
	mvn	r0, #15
	b	.L1439
.L1446:
	.align	2
.L1445:
	.word	.LANCHOR2+540
	.word	.LANCHOR1+2508
	.fnend
	.size	rndis_qc_open_dev, .-rndis_qc_open_dev
	.align	2
	.syntax unified
	.arm
	.fpu softvfp
	.type	mtp_release, %function
mtp_release:
	.fnstart
	@ args = 0, pretend = 0, frame = 0
	@ frame_needed = 0, uses_anonymous_args = 0
	movw	r0, #:lower16:.LC56
	.save {r4, lr}
	str	r4, [sp, #-8]!
	movt	r0, #:upper16:.LC56
	str	lr, [sp, #4]
	bl	printk
	movw	r3, #:lower16:.LANCHOR1
	movt	r3, #:upper16:.LANCHOR1
	ldr	r3, [r3, #2516]
	add	r2, r3, #108
	.syntax divided
@ 83 "/home/Jprimero15/hlte/lolz/arch/arm/include/asm/atomic.h" 1
	@ atomic_sub
1:	ldrex	r1, [r2]
	sub	r1, r1, #1
	strex	r0, r1, [r2]
	teq	r0, #0
	bne	1b
@ 0 "" 2
	.arm
	.syntax unified
	ldr	r4, [sp]
	add	sp, sp, #4
	mov	r0, #0
	ldr	pc, [sp], #4
	.fnend
	.size	mtp_release, .-mtp_release
	.align	2
	.syntax unified
	.arm
	.fpu softvfp
	.type	mtp_open, %function
mtp_open:
	.fnstart
	@ args = 0, pretend = 0, frame = 0
	@ frame_needed = 0, uses_anonymous_args = 0
	movw	r0, #:lower16:.LC57
	.save {r4, lr}
	str	r4, [sp, #-8]!
	mov	r4, r1
	movt	r0, #:upper16:.LC57
	str	lr, [sp, #4]
	bl	printk
	movw	r2, #:lower16:.LANCHOR1
	movt	r2, #:upper16:.LANCHOR1
	ldr	r3, [r2, #2516]
	add	r0, r3, #108
	.syntax divided
@ 61 "/home/Jprimero15/hlte/lolz/arch/arm/include/asm/atomic.h" 1
	dmb
@ 0 "" 2
@ 63 "/home/Jprimero15/hlte/lolz/arch/arm/include/asm/atomic.h" 1
	@ atomic_add_return
1:	ldrex	ip, [r0]
	add	ip, ip, #1
	strex	r1, ip, [r0]
	teq	r1, #0
	bne	1b
@ 0 "" 2
@ 73 "/home/Jprimero15/hlte/lolz/arch/arm/include/asm/atomic.h" 1
	dmb
@ 0 "" 2
	.arm
	.syntax unified
	cmp	ip, #1
	bne	.L1450
	ldr	r3, [r2, #2516]
	mov	r0, #0
	ldr	r2, [r3, #104]
	cmp	r2, #0
	strne	ip, [r3, #104]
	str	r3, [r4, #124]
.L1449:
	ldr	r4, [sp]
	add	sp, sp, #4
	ldr	pc, [sp], #4
.L1450:
	.syntax divided
@ 83 "/home/Jprimero15/hlte/lolz/arch/arm/include/asm/atomic.h" 1
	@ atomic_sub
1:	ldrex	r2, [r0]
	sub	r2, r2, #1
	strex	r1, r2, [r0]
	teq	r1, #0
	bne	1b
@ 0 "" 2
	.arm
	.syntax unified
	mvn	r0, #15
	b	.L1449
	.fnend
	.size	mtp_open, .-mtp_open
	.align	2
	.syntax unified
	.arm
	.fpu softvfp
	.type	ccid_notify_complete, %function
ccid_notify_complete:
	.fnstart
	@ args = 0, pretend = 0, frame = 0
	@ frame_needed = 0, uses_anonymous_args = 0
	@ link register save eliminated.
	ldr	r1, [r1, #44]
	cmn	r1, #104
	beq	.L1455
	cmp	r1, #0
	beq	.L1455
	cmn	r1, #108
	beq	.L1455
	movw	r0, #:lower16:.LC58
	movt	r0, #:upper16:.LC58
	b	printk
.L1455:
	bx	lr
	.fnend
	.size	ccid_notify_complete, .-ccid_notify_complete
	.align	2
	.syntax unified
	.arm
	.fpu softvfp
	.type	frmnet_setup, %function
frmnet_setup:
	.fnstart
	@ args = 0, pretend = 0, frame = 8
	@ frame_needed = 0, uses_anonymous_args = 0
	strd	r4, [sp, #-36]!
	.save {r4, r5, r6, r7, r8, r9, r10, fp, lr}
	strd	r6, [sp, #8]
	strd	r8, [sp, #16]
	strd	r10, [sp, #24]
	str	lr, [sp, #32]
	ldr	r3, [r0, #120]
	.pad #20
	sub	sp, sp, #20
	ldr	r7, [r0, #128]
	ldrh	r9, [r1, #2]	@ unaligned
	ldrh	r6, [r1, #6]	@ unaligned
	cmp	r3, #0
	ldr	r5, [r7, #4]
	beq	.L1474
	ldrh	ip, [r1]	@ unaligned
	movw	r3, #8482
	mov	r4, r0
	mov	r8, r1
	rev16	ip, ip
	uxth	ip, ip
	cmp	ip, r3
	beq	.L1469
	movw	r3, #41217
	cmp	ip, r3
	beq	.L1470
	cmp	ip, #8448
	beq	.L1480
.L1476:
	mvn	r4, #94
.L1467:
	mov	r0, r4
	add	sp, sp, #20
	@ sp needed
	ldrd	r4, [sp]
	ldrd	r6, [sp, #8]
	ldrd	r8, [sp, #16]
	ldrd	r10, [sp, #24]
	add	sp, sp, #32
	ldr	pc, [sp], #4
.L1470:
	cmp	r9, #0
	bne	.L1476
	ldrh	r3, [r1, #4]	@ unaligned
	add	r10, r0, #132
	mov	r0, r10
	str	r3, [sp, #12]
	bl	_raw_spin_lock
	mov	ip, r4
	ldr	fp, [ip, #144]!
	cmp	fp, ip
	beq	.L1481
	mov	r0, fp
	sub	r8, fp, #8
	bl	list_del
	mov	r0, r10
	bl	_raw_spin_unlock
	ldmdb	fp, {r1, r4}
	ldr	r0, [r5]
	cmp	r6, r4
	movcc	r4, r6
	cmp	r4, r6
	mov	r2, r4
	movge	r6, #0
	movlt	r6, #1
	bl	memcpy
	ldr	r0, [fp, #-8]
	bl	kfree
	mov	r0, r8
	bl	kfree
.L1472:
	ldrb	r3, [r5, #26]	@ zero_extendqisi2
	str	r4, [r5, #4]
	mov	r1, r5
	mov	r2, #32
	bfi	r3, r6, #1, #1
	strb	r3, [r5, #26]
	ldr	r3, [r7]
	ldr	r0, [r3, #4]
	ldr	r3, [r0, #8]
	ldr	r3, [r3, #16]
	blx	r3
	subs	r4, r0, #0
	bge	.L1467
	ldr	r0, [r7]
	movw	r1, #:lower16:.LC60
	mov	r2, r4
	movt	r1, #:upper16:.LC60
	add	r0, r0, #32
	bl	dev_err
	b	.L1467
.L1480:
	movw	r3, #:lower16:frmnet_cmd_complete
	mov	r4, r6
	str	r0, [r5, #32]
	movt	r3, #:upper16:frmnet_cmd_complete
	mov	r6, #0
	str	r3, [r5, #28]
	b	.L1472
.L1469:
	ldr	r8, [r0, #100]
	adds	r6, r6, #0
	movne	r6, #1
	cmp	r8, #0
	beq	.L1477
	ldrb	r1, [r0, #116]	@ zero_extendqisi2
	movw	r3, #:lower16:.LANCHOR1
	mov	r2, r9
	movt	r3, #:upper16:.LANCHOR1
	mov	r4, #0
	add	r1, r1, r1, lsl #1
	add	r3, r3, r1, lsl #3
	ldrb	r1, [r3, #2532]	@ zero_extendqisi2
	blx	r8
	b	.L1472
.L1474:
	mvn	r4, #106
	b	.L1467
.L1477:
	mov	r4, r8
	b	.L1472
.L1481:
	ldr	r3, [sp, #12]
	movw	r0, #:lower16:.LC59
	mvn	r4, #94
	ldrb	r2, [r8, #1]	@ zero_extendqisi2
	movt	r0, #:upper16:.LC59
	str	r3, [sp]
	mov	r3, r9
	ldrb	r1, [r8]	@ zero_extendqisi2
	str	r6, [sp, #4]
	bl	printk
	mov	r0, r10
	bl	_raw_spin_unlock
	b	.L1467
	.fnend
	.size	frmnet_setup, .-frmnet_setup
	.align	2
	.syntax unified
	.arm
	.fpu softvfp
	.type	frmnet_notify_complete, %function
frmnet_notify_complete:
	.fnstart
	@ args = 0, pretend = 0, frame = 0
	@ frame_needed = 0, uses_anonymous_args = 0
	strd	r4, [sp, #-24]!
	.save {r4, r5, r6, r7, r8, lr}
	mov	r5, r1
	strd	r6, [sp, #8]
	str	r8, [sp, #16]
	str	lr, [sp, #20]
	ldr	r1, [r1, #44]
	ldr	r4, [r5, #32]
	cmn	r1, #104
	beq	.L1484
	cmp	r1, #0
	bne	.L1509
.L1485:
	ldr	r3, [r4, #124]
	cmp	r3, #0
	bne	.L1510
.L1482:
	ldrd	r4, [sp]
	ldrd	r6, [sp, #8]
	ldr	r8, [sp, #16]
	add	sp, sp, #20
	ldr	pc, [sp], #4
.L1509:
	cmn	r1, #108
	bne	.L1505
.L1484:
	add	r5, r4, #132
	mov	r0, r5
	bl	_raw_spin_lock_irqsave
	mov	r1, r0
	mov	r3, #0
	mov	r0, r5
	str	r3, [r4, #152]
.L1507:
	ldrd	r4, [sp]
	ldrd	r6, [sp, #8]
	ldr	r8, [sp, #16]
	ldr	lr, [sp, #20]
	add	sp, sp, #24
	b	_raw_spin_unlock_irqrestore
.L1510:
	add	r6, r4, #132
	mov	r0, r6
	bl	_raw_spin_lock_irqsave
	ldr	r3, [r4, #152]
	cmp	r3, #0
	beq	.L1488
	sub	r3, r3, #1
	mov	r1, r0
	cmp	r3, #0
	mov	r0, r6
	str	r3, [r4, #152]
	beq	.L1507
	bl	_raw_spin_unlock_irqrestore
	ldr	r0, [r4, #136]
	mov	r1, r5
	mov	r2, #32
	ldr	r3, [r0, #8]
	ldr	r3, [r3, #16]
	blx	r3
	cmp	r0, #0
	beq	.L1482
	mov	r0, r6
	bl	_raw_spin_lock_irqsave
	mov	r3, r4
	mov	r7, r0
	ldr	r5, [r3, #144]!
	cmp	r5, r3
	beq	.L1491
	ldr	r2, [r4, #152]
	cmp	r2, #0
	beq	.L1492
	sub	r2, r2, #1
	mov	r0, r5
	str	r2, [r4, #152]
	sub	r4, r5, #8
	bl	list_del
	ldr	r0, [r5, #-8]
	bl	kfree
	mov	r0, r4
	bl	kfree
.L1491:
	mov	r1, r7
	b	.L1508
.L1488:
	mov	r1, r0
.L1508:
	mov	r0, r6
	b	.L1507
.L1505:
	movw	r0, #:lower16:.LC61
	movt	r0, #:upper16:.LC61
	bl	printk
	b	.L1485
.L1492:
	movw	r0, #:lower16:.LC62
	ldr	r1, .L1511
	movt	r0, #:upper16:.LC62
	bl	printk
	b	.L1491
.L1512:
	.align	2
.L1511:
	.word	.LANCHOR2+560
	.fnend
	.size	frmnet_notify_complete, .-frmnet_notify_complete
	.align	2
	.syntax unified
	.arm
	.fpu softvfp
	.type	mbim_function_ctrlrequest, %function
mbim_function_ctrlrequest:
	.fnstart
	@ args = 0, pretend = 0, frame = 0
	@ frame_needed = 0, uses_anonymous_args = 0
	strd	r4, [sp, #-16]!
	.save {r4, r5, r6, lr}
	str	r6, [sp, #8]
	str	lr, [sp, #12]
	ldr	r3, [r1, #12]
	ldrh	r5, [r2, #6]	@ unaligned
	cmp	r3, #0
	bne	.L1522
	movw	r0, #:lower16:.LANCHOR0
	movt	r0, #:upper16:.LANCHOR0
	ldrb	r3, [r0, #190]	@ zero_extendqisi2
	cmp	r3, #0
	beq	.L1522
	ldrb	r3, [r2]	@ zero_extendqisi2
	mov	r4, r1
	ldrb	r1, [r2, #1]	@ zero_extendqisi2
	cmp	r3, #128
	beq	.L1524
	ldrh	r2, [r2, #4]	@ unaligned
	cmp	r3, #192
	cmpeq	r1, #165
	moveq	r3, #1
	movne	r3, #0
	cmp	r2, #4
	movne	r3, #0
	andeq	r3, r3, #1
	cmp	r3, #0
	beq	.L1522
	ldr	r3, [r4, #4]
	cmp	r5, #40
	add	r1, r0, #164
	movcc	r6, r5
	movcs	r6, #40
	mov	r2, r6
	ldr	r0, [r3]
	bl	memcpy
.L1516:
	ldr	r3, [r4, #4]
	cmp	r5, r6
	mov	r2, #32
	movle	r5, #0
	movgt	r5, #1
	ldrb	r1, [r3, #26]	@ zero_extendqisi2
	bfi	r1, r5, #1, #1
	strb	r1, [r3, #26]
	ldr	r3, [r4, #4]
	str	r6, [r3, #4]
	ldr	r3, [r4]
	ldr	r1, [r4, #4]
	ldr	r0, [r3, #4]
	ldr	r3, [r0, #8]
	ldr	r3, [r3, #16]
	blx	r3
	subs	r2, r0, #0
	blt	.L1525
.L1513:
	mov	r0, r6
	ldrd	r4, [sp]
	ldr	r6, [sp, #8]
	add	sp, sp, #12
	ldr	pc, [sp], #4
.L1524:
	cmp	r1, #6
	beq	.L1526
.L1522:
	mvn	r6, #94
	b	.L1513
.L1526:
	ldrh	r3, [r2, #2]	@ unaligned
	lsr	r2, r3, #8
	cmp	r2, #3
	bne	.L1522
	uxtb	r3, r3
	cmp	r3, #238
	bne	.L1522
	ldr	r3, [r4, #4]
	cmp	r5, #18
	add	r1, r0, #204
	movcc	r6, r5
	movcs	r6, #18
	mov	r2, r6
	ldr	r0, [r3]
	bl	memcpy
	b	.L1516
.L1525:
	movw	r0, #:lower16:.LC63
	ldr	r1, .L1527
	movt	r0, #:upper16:.LC63
	bl	printk
	b	.L1513
.L1528:
	.align	2
.L1527:
	.word	.LANCHOR2+584
	.fnend
	.size	mbim_function_ctrlrequest, .-mbim_function_ctrlrequest
	.align	2
	.syntax unified
	.arm
	.fpu softvfp
	.type	mbim_release, %function
mbim_release:
	.fnstart
	@ args = 0, pretend = 0, frame = 0
	@ frame_needed = 0, uses_anonymous_args = 0
	movw	r0, #:lower16:.LC64
	.save {r4, lr}
	str	r4, [sp, #-8]!
	ldr	r1, .L1531
	movt	r0, #:upper16:.LC64
	str	lr, [sp, #4]
	bl	printk
	movw	r3, #:lower16:.LANCHOR1
	movt	r3, #:upper16:.LANCHOR1
	ldr	r3, [r3, #2592]
	add	r2, r3, #92
	.syntax divided
@ 83 "/home/Jprimero15/hlte/lolz/arch/arm/include/asm/atomic.h" 1
	@ atomic_sub
1:	ldrex	r1, [r2]
	sub	r1, r1, #1
	strex	r0, r1, [r2]
	teq	r0, #0
	bne	1b
@ 0 "" 2
	.arm
	.syntax unified
	ldr	r4, [sp]
	add	sp, sp, #4
	mov	r0, #0
	ldr	pc, [sp], #4
.L1532:
	.align	2
.L1531:
	.word	.LANCHOR2+604
	.fnend
	.size	mbim_release, .-mbim_release
	.align	2
	.syntax unified
	.arm
	.fpu softvfp
	.type	mbim_open, %function
mbim_open:
	.fnstart
	@ args = 0, pretend = 0, frame = 0
	@ frame_needed = 0, uses_anonymous_args = 0
	strd	r4, [sp, #-16]!
	.save {r4, r5, r6, lr}
	movw	r0, #:lower16:.LC65
	movw	r4, #:lower16:.LANCHOR1
	mov	r5, r1
	movt	r0, #:upper16:.LC65
	ldr	r1, .L1542
	movt	r4, #:upper16:.LANCHOR1
	str	r6, [sp, #8]
	str	lr, [sp, #12]
	bl	printk
	ldr	r3, [r4, #2592]
	cmp	r3, #0
	beq	.L1540
	add	r2, r3, #92
	.syntax divided
@ 61 "/home/Jprimero15/hlte/lolz/arch/arm/include/asm/atomic.h" 1
	dmb
@ 0 "" 2
@ 63 "/home/Jprimero15/hlte/lolz/arch/arm/include/asm/atomic.h" 1
	@ atomic_add_return
1:	ldrex	r1, [r2]
	add	r1, r1, #1
	strex	r0, r1, [r2]
	teq	r0, #0
	bne	1b
@ 0 "" 2
@ 73 "/home/Jprimero15/hlte/lolz/arch/arm/include/asm/atomic.h" 1
	dmb
@ 0 "" 2
	.arm
	.syntax unified
	cmp	r1, #1
	bne	.L1536
	movw	r0, #:lower16:.LC67
	ldr	r1, .L1542
	movt	r0, #:upper16:.LC67
	bl	printk
	ldr	r3, [r4, #2592]
	ldr	r2, [r3, #88]
	cmp	r2, #0
	beq	.L1541
.L1538:
	mov	r4, #0
	movw	r0, #:lower16:.LC69
	str	r3, [r5, #124]
	movt	r0, #:upper16:.LC69
	ldr	r1, .L1542
	str	r4, [r3, #232]
	bl	printk
	mov	r0, r4
.L1533:
	ldrd	r4, [sp]
	ldr	r6, [sp, #8]
	add	sp, sp, #12
	ldr	pc, [sp], #4
.L1536:
	.syntax divided
@ 83 "/home/Jprimero15/hlte/lolz/arch/arm/include/asm/atomic.h" 1
	@ atomic_sub
1:	ldrex	r1, [r2]
	sub	r1, r1, #1
	strex	r0, r1, [r2]
	teq	r0, #0
	bne	1b
@ 0 "" 2
	.arm
	.syntax unified
	movw	r0, #:lower16:.LC55
	ldr	r1, .L1542
	movt	r0, #:upper16:.LC55
	bl	printk
	mvn	r0, #15
	b	.L1533
.L1540:
	movw	r0, #:lower16:.LC66
	ldr	r1, .L1542
	movt	r0, #:upper16:.LC66
	bl	printk
	mvn	r0, #18
	b	.L1533
.L1541:
	movw	r0, #:lower16:.LC68
	ldr	r1, .L1542
	movt	r0, #:upper16:.LC68
	bl	printk
	ldr	r3, [r4, #2592]
	b	.L1538
.L1543:
	.align	2
.L1542:
	.word	.LANCHOR2+620
	.fnend
	.size	mbim_open, .-mbim_open
	.align	2
	.global	gsdio_tx_pull
	.syntax unified
	.arm
	.fpu softvfp
	.type	gsdio_tx_pull, %function
gsdio_tx_pull:
	.fnstart
	@ args = 0, pretend = 0, frame = 0
	@ frame_needed = 0, uses_anonymous_args = 0
	strd	r4, [sp, #-32]!
	.save {r4, r5, r6, r7, r8, r9, r10, lr}
	mov	r4, r0
	strd	r6, [sp, #8]
	strd	r8, [sp, #16]
	sub	r8, r0, #60
	str	r10, [sp, #24]
	str	lr, [sp, #28]
	ldr	r3, [r0, #36]
	.pad #8
	sub	sp, sp, #8
	cmp	r3, #0
	beq	.L1555
	sub	r5, r0, #56
	sub	r7, r0, #8
	mov	r0, r5
	bl	_raw_spin_lock_irq
	ldr	r6, [r4, #-8]
	cmp	r7, r6
	beq	.L1549
	ldr	r3, [r4, #48]
	cmp	r3, #0
	bne	.L1556
.L1549:
	mov	r0, r5
	add	sp, sp, #8
	@ sp needed
	ldrd	r4, [sp]
	ldrd	r6, [sp, #8]
	ldrd	r8, [sp, #16]
	ldr	r10, [sp, #24]
	ldr	lr, [sp, #28]
	add	sp, sp, #32
	b	_raw_spin_unlock_irq
.L1555:
	movw	r0, #:lower16:.LC70
	ldr	r1, .L1559
	movt	r0, #:upper16:.LC70
	bl	printk
	cmp	r8, #0
	beq	.L1557
	ldr	r3, [r4, #60]
	ldr	r3, [r3, #4]
	cmp	r3, #0
	beq	.L1544
.L1548:
	b	.L1548
.L1544:
	add	sp, sp, #8
	@ sp needed
	ldrd	r4, [sp]
	ldrd	r6, [sp, #8]
	ldrd	r8, [sp, #16]
	ldr	r10, [sp, #24]
	add	sp, sp, #28
	ldr	pc, [sp], #4
.L1556:
	ldr	r3, [r4, #36]
	mov	r0, r6
	sub	r10, r6, #36
	ldr	r9, [r3, #88]
	bl	list_del
	ldr	r3, [r4, #16]
	mov	r0, r5
	sub	r3, r3, #1
	str	r3, [r4, #16]
	bl	_raw_spin_unlock_irq
	mov	r0, r5
	bl	_raw_spin_lock_irq
	mvn	r1, #18
	movw	r0, #:lower16:.LC71
	ldr	r3, [r4, #-60]
	mov	r2, r8
	movt	r0, #:upper16:.LC71
	str	r1, [sp]
	ldr	r1, .L1559
	bl	printk
	ldr	r3, [r4, #36]
	cmp	r3, #0
	beq	.L1558
	mov	r1, r7
	mov	r0, r6
	ldr	r2, [r4, #-8]
	bl	__list_add
	ldr	r3, [r4, #16]
	add	r3, r3, #1
	str	r3, [r4, #16]
	b	.L1549
.L1557:
	ldr	r1, .L1559+4
	movw	r0, #:lower16:.LC12
	movt	r0, #:upper16:.LC12
	add	sp, sp, #8
	@ sp needed
	ldrd	r4, [sp]
	ldrd	r6, [sp, #8]
	ldrd	r8, [sp, #16]
	ldr	r10, [sp, #24]
	ldr	lr, [sp, #28]
	add	sp, sp, #32
	b	printk
.L1558:
	ldr	r0, [r6, #-36]
	bl	kfree
	ldr	r3, [r9, #8]
	mov	r1, r10
	mov	r0, r9
	ldr	r3, [r3, #12]
	blx	r3
	b	.L1549
.L1560:
	.align	2
.L1559:
	.word	.LANCHOR2+632
	.word	.LANCHOR2+648
	.fnend
	.size	gsdio_tx_pull, .-gsdio_tx_pull
	.align	2
	.syntax unified
	.arm
	.fpu softvfp
	.type	gsdio_open_work, %function
gsdio_open_work:
	.fnstart
	@ args = 0, pretend = 0, frame = 0
	@ frame_needed = 0, uses_anonymous_args = 0
	mov	r2, r0
	.save {lr}
	str	lr, [sp, #-4]!
	ldr	r1, .L1563
	ldr	ip, [r2, #-4]
	.pad #12
	sub	sp, sp, #12
	movw	r0, #:lower16:.LC72
	ldr	r3, [r2, #-124]!
	movt	r0, #:upper16:.LC72
	ldr	ip, [ip]
	str	ip, [sp]
	bl	printk
	add	sp, sp, #12
	@ sp needed
	ldr	pc, [sp], #4
.L1564:
	.align	2
.L1563:
	.word	.LANCHOR2+668
	.fnend
	.size	gsdio_open_work, .-gsdio_open_work
	.align	2
	.syntax unified
	.arm
	.fpu softvfp
	.type	ep0_queue, %function
ep0_queue:
	.fnstart
	@ args = 0, pretend = 0, frame = 0
	@ frame_needed = 0, uses_anonymous_args = 0
	strd	r4, [sp, #-16]!
	.save {r4, r5, r6, lr}
	mov	r4, r0
	mov	r2, #32
	str	r6, [sp, #8]
	str	lr, [sp, #12]
	ldr	r0, [r0, #48]
	ldr	r1, [r4, #52]
	ldr	r3, [r0, #8]
	ldr	r3, [r3, #16]
	blx	r3
	ldr	r3, [r4, #48]
	cmp	r0, #0
	cmnne	r0, #108
	mov	r5, r0
	str	r4, [r3]
	beq	.L1565
	mov	r3, r0
	ldr	r0, [r4]
	movw	r1, #:lower16:.LC73
	ldr	r2, [r4, #48]
	movt	r1, #:upper16:.LC73
	add	r0, r0, #32
	ldr	r2, [r2, #4]
	bl	dev_warn
.L1565:
	mov	r0, r5
	ldrd	r4, [sp]
	ldr	r6, [sp, #8]
	add	sp, sp, #12
	ldr	pc, [sp], #4
	.fnend
	.size	ep0_queue, .-ep0_queue
	.align	2
	.syntax unified
	.arm
	.fpu softvfp
	.type	start_transfer, %function
start_transfer:
	.fnstart
	@ args = 4, pretend = 0, frame = 0
	@ frame_needed = 0, uses_anonymous_args = 0
	strd	r4, [sp, #-24]!
	.save {r4, r5, r6, r7, r8, lr}
	mov	r5, r0
	mov	r4, r1
	strd	r6, [sp, #8]
	ldr	r6, [sp, #24]
	mov	r7, r3
	str	r8, [sp, #16]
	mov	r8, r2
	str	lr, [sp, #20]
	ldr	r0, [r0, #88]
	add	r0, r0, #44
	bl	_raw_spin_lock_irq
	mov	r2, #1
	mov	r3, #2
	str	r2, [r7]
	str	r3, [r6]
	ldr	r0, [r5, #88]
	add	r0, r0, #44
	bl	_raw_spin_unlock_irq
	ldr	r3, [r4, #8]
	mov	r1, r8
	mov	r0, r4
	mov	r2, #208
	ldr	r3, [r3, #16]
	blx	r3
	subs	r3, r0, #0
	beq	.L1571
	mov	r2, #0
	cmn	r3, #108
	str	r2, [r7]
	str	r2, [r6]
	beq	.L1571
	cmn	r3, #95
	bne	.L1575
	ldr	r2, [r8, #4]
	cmp	r2, #0
	beq	.L1571
.L1575:
	ldr	r0, [r5, #84]
	movw	r1, #:lower16:.LC73
	ldr	r2, [r4, #4]
	movt	r1, #:upper16:.LC73
	ldrd	r4, [sp]
	ldrd	r6, [sp, #8]
	ldr	r8, [sp, #16]
	add	r0, r0, #32
	ldr	lr, [sp, #20]
	add	sp, sp, #24
	b	dev_warn
.L1571:
	ldrd	r4, [sp]
	ldrd	r6, [sp, #8]
	ldr	r8, [sp, #16]
	add	sp, sp, #20
	ldr	pc, [sp], #4
	.fnend
	.size	start_transfer, .-start_transfer
	.align	2
	.syntax unified
	.arm
	.fpu softvfp
	.type	start_out_transfer, %function
start_out_transfer:
	.fnstart
	@ args = 0, pretend = 0, frame = 0
	@ frame_needed = 0, uses_anonymous_args = 0
	.save {r4, lr}
	str	r4, [sp, #-8]!
	str	lr, [sp, #4]
	ldr	r4, [r0, #8]
	.pad #8
	sub	sp, sp, #8
	cmp	r4, #0
	beq	.L1584
	add	ip, r1, #4
	ldr	r2, [r1, #24]
	add	r3, r1, #28
	ldr	r1, [r4, #104]
	mov	r0, r4
	str	ip, [sp]
	bl	start_transfer
	mov	r0, #1
	add	sp, sp, #8
	@ sp needed
	ldr	r4, [sp]
	add	sp, sp, #4
	ldr	pc, [sp], #4
.L1584:
	ldr	r0, [r0]
	movw	r1, #:lower16:.LC74
	movw	r3, #805
	ldr	r2, .L1587
	movt	r1, #:upper16:.LC74
	add	r0, r0, #32
	bl	dev_err
	movw	r0, #:lower16:.LC75
	movw	r1, #550
	movt	r0, #:upper16:.LC75
	bl	warn_slowpath_null
	mov	r0, r4
	add	sp, sp, #8
	@ sp needed
	ldr	r4, [sp]
	add	sp, sp, #4
	ldr	pc, [sp], #4
.L1588:
	.align	2
.L1587:
	.word	.LANCHOR2+684
	.fnend
	.size	start_out_transfer, .-start_out_transfer
	.align	2
	.syntax unified
	.arm
	.fpu softvfp
	.type	start_in_transfer, %function
start_in_transfer:
	.fnstart
	@ args = 0, pretend = 0, frame = 0
	@ frame_needed = 0, uses_anonymous_args = 0
	.save {r4, lr}
	str	r4, [sp, #-8]!
	str	lr, [sp, #4]
	ldr	r4, [r0, #8]
	.pad #8
	sub	sp, sp, #8
	cmp	r4, #0
	beq	.L1590
	add	ip, r1, #4
	ldr	r2, [r1, #16]
	add	r3, r1, #20
	ldr	r1, [r4, #100]
	mov	r0, r4
	str	ip, [sp]
	bl	start_transfer
	mov	r0, #1
	add	sp, sp, #8
	@ sp needed
	ldr	r4, [sp]
	add	sp, sp, #4
	ldr	pc, [sp], #4
.L1590:
	ldr	r0, [r0]
	movw	r1, #:lower16:.LC74
	mov	r3, #796
	ldr	r2, .L1593
	movt	r1, #:upper16:.LC74
	add	r0, r0, #32
	bl	dev_err
	movw	r0, #:lower16:.LC75
	movw	r1, #550
	movt	r0, #:upper16:.LC75
	bl	warn_slowpath_null
	mov	r0, r4
	add	sp, sp, #8
	@ sp needed
	ldr	r4, [sp]
	add	sp, sp, #4
	ldr	pc, [sp], #4
.L1594:
	.align	2
.L1593:
	.word	.LANCHOR2+704
	.fnend
	.size	start_in_transfer, .-start_in_transfer
	.section	.text.unlikely,"ax",%progbits
	.align	2
	.syntax unified
	.arm
	.fpu softvfp
	.type	override_id, %function
override_id:
	.fnstart
	@ args = 0, pretend = 0, frame = 0
	@ frame_needed = 0, uses_anonymous_args = 0
	push	{r4, lr}
	.save {r4, lr}
	mov	r4, r1
	ldrb	r3, [r1]	@ zero_extendqisi2
	cmp	r3, #0
	bne	.L1596
	ldrb	r3, [r0, #48]	@ zero_extendqisi2
	cmp	r3, #253
	bls	.L1597
	ldr	r0, [r0]
	movw	r1, #:lower16:.LC76
	movt	r1, #:upper16:.LC76
	add	r0, r0, #32
	bl	dev_warn
	b	.L1596
.L1597:
	add	r3, r3, #1
	uxtb	r3, r3
	strb	r3, [r0, #48]
	strb	r3, [r1]
.L1596:
	ldrb	r0, [r4]	@ zero_extendqisi2
	pop	{r4, pc}
	.fnend
	.size	override_id, .-override_id
	.text
	.align	2
	.syntax unified
	.arm
	.fpu softvfp
	.type	rmnet_sdio_response_complete, %function
rmnet_sdio_response_complete:
	.fnstart
	@ args = 0, pretend = 0, frame = 0
	@ frame_needed = 0, uses_anonymous_args = 0
	ldr	r3, [r1, #44]
	cmn	r3, #104
	bxeq	lr
	cmp	r3, #0
	bxeq	lr
	cmn	r3, #108
	bxeq	lr
	mov	ip, r1
	.save {r4, lr}
	str	r4, [sp, #-8]!
	movw	r1, #:lower16:.LC77
	str	lr, [sp, #4]
	ldr	r2, [r0, #4]
	.pad #8
	sub	sp, sp, #8
	ldr	r4, [ip, #32]
	movt	r1, #:upper16:.LC77
	ldr	lr, [ip, #4]
	ldr	ip, [ip, #48]
	ldr	r0, [r4, #84]
	ldr	r0, [r0]
	stm	sp, {ip, lr}
	add	r0, r0, #32
	bl	_dev_info
	add	sp, sp, #8
	@ sp needed
	ldr	r4, [sp]
	add	sp, sp, #4
	ldr	pc, [sp], #4
	.fnend
	.size	rmnet_sdio_response_complete, .-rmnet_sdio_response_complete
	.align	2
	.syntax unified
	.arm
	.fpu softvfp
	.type	rmnet_mux_response_complete, %function
rmnet_mux_response_complete:
	.fnstart
	@ args = 0, pretend = 0, frame = 0
	@ frame_needed = 0, uses_anonymous_args = 0
	ldr	r3, [r1, #44]
	cmn	r3, #104
	bxeq	lr
	cmp	r3, #0
	bxeq	lr
	cmn	r3, #108
	bxeq	lr
	mov	ip, r1
	.save {r4, lr}
	str	r4, [sp, #-8]!
	movw	r1, #:lower16:.LC78
	str	lr, [sp, #4]
	ldr	r2, [r0, #4]
	.pad #8
	sub	sp, sp, #8
	ldr	r4, [ip, #32]
	movt	r1, #:upper16:.LC78
	ldr	lr, [ip, #4]
	ldr	ip, [ip, #48]
	ldr	r0, [r4, #84]
	ldr	r0, [r0]
	stm	sp, {ip, lr}
	add	r0, r0, #32
	bl	_dev_info
	add	sp, sp, #8
	@ sp needed
	ldr	r4, [sp]
	add	sp, sp, #4
	ldr	pc, [sp], #4
	.fnend
	.size	rmnet_mux_response_complete, .-rmnet_mux_response_complete
	.align	2
	.syntax unified
	.arm
	.fpu softvfp
	.type	composite_show_suspended, %function
composite_show_suspended:
	.fnstart
	@ args = 0, pretend = 0, frame = 0
	@ frame_needed = 0, uses_anonymous_args = 0
	.save {r4, lr}
	str	r4, [sp, #-8]!
	mov	r4, r2
	str	lr, [sp, #4]
	bl	dev_get_drvdata
	ldrb	r2, [r0, #16]	@ zero_extendqisi2
	movw	r1, #:lower16:.LC79
	mov	r0, r4
	movt	r1, #:upper16:.LC79
	and	r2, r2, #1
	bl	sprintf
	ldr	r4, [sp]
	add	sp, sp, #4
	mov	r0, #2
	ldr	pc, [sp], #4
	.fnend
	.size	composite_show_suspended, .-composite_show_suspended
	.align	2
	.syntax unified
	.arm
	.fpu softvfp
	.type	usb30en_show, %function
usb30en_show:
	.fnstart
	@ args = 0, pretend = 0, frame = 0
	@ frame_needed = 0, uses_anonymous_args = 0
	@ link register save eliminated.
	movw	r3, #:lower16:.LANCHOR1
	movw	r1, #:lower16:.LC80
	movt	r3, #:upper16:.LANCHOR1
	mov	r0, r2
	movt	r1, #:upper16:.LC80
	ldrb	r2, [r3, #2596]	@ zero_extendqisi2
	b	sprintf
	.fnend
	.size	usb30en_show, .-usb30en_show
	.align	2
	.syntax unified
	.arm
	.fpu softvfp
	.type	fsg_show_ro, %function
fsg_show_ro:
	.fnstart
	@ args = 0, pretend = 0, frame = 0
	@ frame_needed = 0, uses_anonymous_args = 0
	mov	r3, r0
	.save {r4, lr}
	str	r4, [sp, #-8]!
	mov	r0, r2
	str	lr, [sp, #4]
	ldr	r2, [r3, #-48]
	movw	r1, #:lower16:.LC79
	movt	r1, #:upper16:.LC79
	cmp	r2, #0
	ldrb	r2, [r3, #-24]	@ zero_extendqisi2
	ubfxne	r2, r2, #1, #1
	andeq	r2, r2, #1
	bl	sprintf
	ldr	r4, [sp]
	add	sp, sp, #4
	mov	r0, #2
	ldr	pc, [sp], #4
	.fnend
	.size	fsg_show_ro, .-fsg_show_ro
	.align	2
	.syntax unified
	.arm
	.fpu softvfp
	.type	fsg_show_nofua, %function
fsg_show_nofua:
	.fnstart
	@ args = 0, pretend = 0, frame = 0
	@ frame_needed = 0, uses_anonymous_args = 0
	.save {r4, lr}
	str	r4, [sp, #-8]!
	movw	r1, #:lower16:.LC81
	str	lr, [sp, #4]
	ldrb	r3, [r0, #-24]	@ zero_extendqisi2
	movt	r1, #:upper16:.LC81
	mov	r0, r2
	lsr	r2, r3, #7
	bl	sprintf
	ldr	r4, [sp]
	add	sp, sp, #4
	mov	r0, #2
	ldr	pc, [sp], #4
	.fnend
	.size	fsg_show_nofua, .-fsg_show_nofua
	.align	2
	.syntax unified
	.arm
	.fpu softvfp
	.type	fsg_show_cdrom, %function
fsg_show_cdrom:
	.fnstart
	@ args = 0, pretend = 0, frame = 0
	@ frame_needed = 0, uses_anonymous_args = 0
	.save {r4, lr}
	str	r4, [sp, #-8]!
	movw	r1, #:lower16:.LC79
	str	lr, [sp, #4]
	ldrb	r3, [r0, #-24]	@ zero_extendqisi2
	movt	r1, #:upper16:.LC79
	mov	r0, r2
	ubfx	r2, r3, #3, #1
	bl	sprintf
	ldr	r4, [sp]
	add	sp, sp, #4
	mov	r0, #2
	ldr	pc, [sp], #4
	.fnend
	.size	fsg_show_cdrom, .-fsg_show_cdrom
	.align	2
	.syntax unified
	.arm
	.fpu softvfp
	.type	sua_version_info_show, %function
sua_version_info_show:
	.fnstart
	@ args = 0, pretend = 0, frame = 0
	@ frame_needed = 0, uses_anonymous_args = 0
	strd	r4, [sp, #-16]!
	.save {r4, r5, r6, lr}
	mov	r4, r2
	str	r6, [sp, #8]
	str	lr, [sp, #12]
	bl	dev_get_drvdata
	ldr	r3, [r0, #4]
	movw	r1, #:lower16:.LC82
	mov	r0, r4
	movt	r1, #:upper16:.LC82
	ldr	r2, [r3, #96]
	add	r2, r2, #235
	bl	sprintf
	mov	r5, r0
	movw	r0, #:lower16:.LC83
	ldr	r1, .L1644
	mov	r2, r4
	movt	r0, #:upper16:.LC83
	bl	printk
	ldr	r6, [sp, #8]
	mov	r0, r5
	ldrd	r4, [sp]
	add	sp, sp, #12
	ldr	pc, [sp], #4
.L1645:
	.align	2
.L1644:
	.word	.LANCHOR2+724
	.fnend
	.size	sua_version_info_show, .-sua_version_info_show
	.align	2
	.syntax unified
	.arm
	.fpu softvfp
	.type	mass_storage_product_show, %function
mass_storage_product_show:
	.fnstart
	@ args = 0, pretend = 0, frame = 0
	@ frame_needed = 0, uses_anonymous_args = 0
	.save {r4, lr}
	str	r4, [sp, #-8]!
	mov	r4, r2
	str	lr, [sp, #4]
	bl	dev_get_drvdata
	ldr	r3, [r0, #4]
	movw	r1, #:lower16:.LC84
	mov	r0, r4
	movt	r1, #:upper16:.LC84
	ldr	r4, [sp]
	ldr	lr, [sp, #4]
	add	sp, sp, #8
	ldr	r2, [r3, #96]
	add	r2, r2, #218
	b	sprintf
	.fnend
	.size	mass_storage_product_show, .-mass_storage_product_show
	.align	2
	.syntax unified
	.arm
	.fpu softvfp
	.type	mass_storage_vendor_show, %function
mass_storage_vendor_show:
	.fnstart
	@ args = 0, pretend = 0, frame = 0
	@ frame_needed = 0, uses_anonymous_args = 0
	.save {r4, lr}
	str	r4, [sp, #-8]!
	mov	r4, r2
	str	lr, [sp, #4]
	bl	dev_get_drvdata
	ldr	r3, [r0, #4]
	movw	r1, #:lower16:.LC84
	mov	r0, r4
	movt	r1, #:upper16:.LC84
	ldr	r4, [sp]
	ldr	lr, [sp, #4]
	add	sp, sp, #8
	ldr	r2, [r3, #96]
	add	r2, r2, #209
	b	sprintf
	.fnend
	.size	mass_storage_vendor_show, .-mass_storage_vendor_show
	.align	2
	.syntax unified
	.arm
	.fpu softvfp
	.type	acm_instances_show, %function
acm_instances_show:
	.fnstart
	@ args = 0, pretend = 0, frame = 0
	@ frame_needed = 0, uses_anonymous_args = 0
	.save {r4, lr}
	str	r4, [sp, #-8]!
	mov	r4, r2
	str	lr, [sp, #4]
	bl	dev_get_drvdata
	ldr	r3, [r0, #4]
	movw	r1, #:lower16:.LC79
	mov	r0, r4
	movt	r1, #:upper16:.LC79
	ldr	r4, [sp]
	ldr	lr, [sp, #4]
	add	sp, sp, #8
	ldr	r2, [r3]
	b	sprintf
	.fnend
	.size	acm_instances_show, .-acm_instances_show
	.align	2
	.syntax unified
	.arm
	.fpu softvfp
	.type	midi_alsa_show, %function
midi_alsa_show:
	.fnstart
	@ args = 0, pretend = 0, frame = 0
	@ frame_needed = 0, uses_anonymous_args = 0
	.save {r4, lr}
	str	r4, [sp, #-8]!
	mov	r4, r2
	str	lr, [sp, #4]
	bl	dev_get_drvdata
	ldr	r3, [r0, #4]
	movw	r1, #:lower16:.LC85
	mov	r0, r4
	movt	r1, #:upper16:.LC85
	ldr	r4, [sp]
	ldr	lr, [sp, #4]
	add	sp, sp, #8
	ldrd	r2, [r3]
	b	sprintf
	.fnend
	.size	midi_alsa_show, .-midi_alsa_show
	.align	2
	.syntax unified
	.arm
	.fpu softvfp
	.type	composite_disconnect, %function
composite_disconnect:
	.fnstart
	@ args = 0, pretend = 0, frame = 0
	@ frame_needed = 0, uses_anonymous_args = 0
	strd	r4, [sp, #-24]!
	.save {r4, r5, r6, r7, r8, lr}
	add	r0, r0, #32
	strd	r6, [sp, #8]
	str	r8, [sp, #16]
	str	lr, [sp, #20]
	bl	dev_get_drvdata
	mov	r8, r0
	mov	r0, #0
	bl	set_string_mode
	movw	r0, #:lower16:.LC86
	ldr	r1, .L1674
	add	r5, r8, #60
	movt	r0, #:upper16:.LC86
	bl	printk
	mov	r0, r5
	bl	_raw_spin_lock_irqsave
	ldr	r3, [r8, #12]
	mov	r6, r0
	cmp	r3, #0
	beq	.L1655
	ldr	r4, [r3, #36]!
	cmp	r4, r3
	sub	r4, r4, #72
	beq	.L1656
	mov	r7, #0
.L1658:
	ldr	r3, [r4, #48]
	mov	r0, r4
	cmp	r3, #0
	beq	.L1657
	blx	r3
.L1657:
	str	r7, [r4, #80]
	ldr	r3, [r8, #12]
	ldr	r4, [r4, #72]
	add	r3, r3, #36
	cmp	r4, r3
	sub	r4, r4, #72
	bne	.L1658
.L1656:
	movw	r3, #:lower16:.LANCHOR1
	mov	r2, #0
	movt	r3, #:upper16:.LANCHOR1
	ldr	r3, [r3, #2236]
	str	r2, [r8, #12]
	str	r2, [r8, #56]
	ldr	r3, [r3, #32]
	cmp	r3, r2
	beq	.L1660
.L1659:
	mov	r0, r8
	blx	r3
.L1661:
	ldr	r3, [r8, #56]
	cmp	r3, #0
	beq	.L1660
	ldr	r0, [r8]
	movw	r1, #:lower16:.LC87
	movt	r1, #:upper16:.LC87
	add	r0, r0, #32
	bl	_dev_info
	mov	r3, #0
	str	r3, [r8, #56]
.L1660:
	mov	r1, r6
	mov	r0, r5
	ldrd	r4, [sp]
	ldrd	r6, [sp, #8]
	ldr	r8, [sp, #16]
	ldr	lr, [sp, #20]
	add	sp, sp, #24
	b	_raw_spin_unlock_irqrestore
.L1655:
	movw	r3, #:lower16:.LANCHOR1
	movt	r3, #:upper16:.LANCHOR1
	ldr	r3, [r3, #2236]
	ldr	r3, [r3, #32]
	cmp	r3, #0
	bne	.L1659
	b	.L1661
.L1675:
	.align	2
.L1674:
	.word	.LANCHOR2+748
	.fnend
	.size	composite_disconnect, .-composite_disconnect
	.align	2
	.syntax unified
	.arm
	.fpu softvfp
	.type	count_configs, %function
count_configs:
	.fnstart
	@ args = 0, pretend = 0, frame = 0
	@ frame_needed = 0, uses_anonymous_args = 0
	strd	r4, [sp, #-24]!
	.save {r4, r5, r6, r7, r8, lr}
	strd	r6, [sp, #8]
	str	r8, [sp, #16]
	str	lr, [sp, #20]
	ldr	r3, [r0]
	ldr	r2, [r3, #20]
	cmp	r2, #2
	movls	r6, #0
	movls	r7, r6
	bls	.L1677
	ldr	r6, [r3, #16]
	cmp	r6, #3
	beq	.L1686
	sub	r6, r6, #5
	mov	r7, #0
	clz	r6, r6
	lsr	r6, r6, #5
.L1678:
	cmp	r1, #6
	eoreq	r7, r7, #1
.L1677:
	mov	r5, r0
	ldr	r4, [r5, #36]!
	cmp	r5, r4
	sub	r4, r4, #28
	moveq	r0, #0
	beq	.L1676
	mov	r3, #0
	b	.L1684
.L1700:
	tst	r2, #1
	beq	.L1681
.L1682:
	bl	count_multi_config
	mov	r3, r0
.L1681:
	ldr	r4, [r4, #28]
	cmp	r5, r4
	sub	r4, r4, #28
	beq	.L1699
.L1684:
	cmp	r6, #0
	mov	r0, r4
	ldrb	r2, [r4, #45]	@ zero_extendqisi2
	add	r1, r3, #1
	bne	.L1700
	cmp	r7, #0
	beq	.L1683
	tst	r2, #2
	bne	.L1682
	ldr	r4, [r4, #28]
	cmp	r5, r4
	sub	r4, r4, #28
	bne	.L1684
.L1699:
	mov	r0, r3
.L1676:
	ldrd	r4, [sp]
	ldrd	r6, [sp, #8]
	ldr	r8, [sp, #16]
	add	sp, sp, #20
	ldr	pc, [sp], #4
.L1683:
	tst	r2, #4
	bne	.L1682
	b	.L1681
.L1686:
	mov	r7, #1
	mov	r6, #0
	b	.L1678
	.fnend
	.size	count_configs, .-count_configs
	.align	2
	.syntax unified
	.arm
	.fpu softvfp
	.type	eth_qc_stop, %function
eth_qc_stop:
	.fnstart
	@ args = 0, pretend = 0, frame = 0
	@ frame_needed = 0, uses_anonymous_args = 0
	strd	r4, [sp, #-24]!
	.save {r4, r5, r6, r7, r8, lr}
	mov	r4, r0
	strd	r6, [sp, #8]
	str	r8, [sp, #16]
	str	lr, [sp, #20]
	ldr	r1, [r0, #576]
	ldr	r6, [r0, #1156]
	cmp	r1, #0
	beq	.L1713
	add	r1, r1, #80
	mov	r0, #0
	bl	_set_bit
.L1704:
	add	r5, r4, #1152
	mov	r0, r5
	bl	_raw_spin_lock_irqsave
	ldr	r3, [r4, #1156]
	mov	r7, r0
	cmp	r3, #0
	beq	.L1703
	ldr	r3, [r6, #116]
	cmp	r3, #0
	beq	.L1703
	mov	r0, r6
	blx	r3
.L1703:
	mov	r0, r5
	mov	r1, r7
	bl	_raw_spin_unlock_irqrestore
	ldrd	r4, [sp]
	mov	r0, #0
	ldrd	r6, [sp, #8]
	ldr	r8, [sp, #16]
	add	sp, sp, #20
	ldr	pc, [sp], #4
.L1713:
	movw	r0, #:lower16:.LC88
	movw	r1, #1847
	movt	r0, #:upper16:.LC88
	bl	warn_slowpath_null
	movw	r0, #:lower16:.LC89
	movt	r0, #:upper16:.LC89
	bl	printk
	b	.L1704
	.fnend
	.size	eth_qc_stop, .-eth_qc_stop
	.align	2
	.syntax unified
	.arm
	.fpu softvfp
	.type	ghsuart_send_cpkt_tomodem, %function
ghsuart_send_cpkt_tomodem:
	.fnstart
	@ args = 0, pretend = 0, frame = 0
	@ frame_needed = 0, uses_anonymous_args = 0
	movw	r3, #:lower16:.LANCHOR1
	strd	r4, [sp, #-24]!
	.save {r4, r5, r6, r7, r8, lr}
	mov	r5, r1
	movt	r3, #:upper16:.LANCHOR1
	strd	r6, [sp, #8]
	mov	ip, r0
	str	r8, [sp, #16]
	str	lr, [sp, #20]
	ldr	r1, [r3, #1860]
	cmp	r0, r1
	bcs	.L1725
	mov	r1, #84
	mla	r3, r1, r0, r3
	ldr	r4, [r3, #1864]
	cmp	r4, #0
	beq	.L1726
	ldr	r0, [r4, #88]
	ubfx	r0, r0, #2, #1
	cmp	r0, #0
	beq	.L1727
	mov	r1, #32
	mov	r0, r2
	mov	r6, r2
	bl	__kmalloc
	subs	r7, r0, #0
	mvneq	r0, #11
	beq	.L1714
	mov	r2, r6
	mov	r1, r5
	bl	memcpy
	ldr	r1, .L1729
	ldr	r0, .L1729+4
	bl	___ratelimit
	cmp	r0, #0
	bne	.L1728
.L1719:
	ldr	r3, [r4, #104]
	mov	r0, r7
	add	r3, r3, #1
	str	r3, [r4, #104]
	bl	kfree
	mvn	r0, #18
.L1714:
	ldrd	r4, [sp]
	ldrd	r6, [sp, #8]
	ldr	r8, [sp, #16]
	add	sp, sp, #20
	ldr	pc, [sp], #4
.L1727:
	ldr	r3, [r4, #104]
	add	r3, r3, #1
	str	r3, [r4, #104]
	b	.L1714
.L1726:
	movw	r0, #:lower16:.LC12
	ldr	r1, .L1729
	movt	r0, #:upper16:.LC12
	bl	printk
	mvn	r0, #18
	b	.L1714
.L1725:
	movw	r0, #:lower16:.LC17
	mov	r2, ip
	ldr	r1, .L1729
	movt	r0, #:upper16:.LC17
	bl	printk
	mvn	r0, #18
	b	.L1714
.L1728:
	movw	r0, #:lower16:.LC90
	mvn	r2, #18
	ldr	r1, .L1729
	movt	r0, #:upper16:.LC90
	bl	printk
	b	.L1719
.L1730:
	.align	2
.L1729:
	.word	.LANCHOR2+772
	.word	.LANCHOR0+224
	.fnend
	.size	ghsuart_send_cpkt_tomodem, .-ghsuart_send_cpkt_tomodem
	.align	2
	.syntax unified
	.arm
	.fpu softvfp
	.type	qdss_disable, %function
qdss_disable:
	.fnstart
	@ args = 0, pretend = 0, frame = 0
	@ frame_needed = 0, uses_anonymous_args = 0
	strd	r4, [sp, #-16]!
	.save {r4, r5, r6, lr}
	add	r5, r0, #188
	mov	r4, r0
	mov	r0, r5
	str	r6, [sp, #8]
	str	lr, [sp, #12]
	bl	_raw_spin_lock_irqsave
	ldr	r3, [r4, #92]
	mov	r1, r0
	cmp	r3, #0
	beq	.L1734
	mov	r3, #0
	mov	r0, r5
	str	r3, [r4, #92]
	bl	_raw_spin_unlock_irqrestore
	mov	r0, r4
	bl	qdss_eps_disable
	ldr	r6, [sp, #8]
	add	r2, r4, #172
	mov	r0, #4
	ldr	r1, [r4, #196]
	ldrd	r4, [sp]
	ldr	lr, [sp, #12]
	add	sp, sp, #16
	b	queue_work_on
.L1734:
	mov	r0, r5
	ldrd	r4, [sp]
	ldr	r6, [sp, #8]
	ldr	lr, [sp, #12]
	add	sp, sp, #16
	b	_raw_spin_unlock_irqrestore
	.fnend
	.size	qdss_disable, .-qdss_disable
	.align	2
	.syntax unified
	.arm
	.fpu softvfp
	.type	rmnet_smd_disable, %function
rmnet_smd_disable:
	.fnstart
	@ args = 0, pretend = 0, frame = 0
	@ frame_needed = 0, uses_anonymous_args = 0
	.save {r4, lr}
	str	r4, [sp, #-8]!
	mov	r4, r0
	mov	r3, #0
	str	lr, [sp, #4]
	ldr	r0, [r0, #96]
	str	r3, [r4, #168]
	ldr	r3, [r0, #8]
	ldr	r2, [r3, #36]
	cmp	r2, #0
	beq	.L1736
	blx	r2
	ldr	r0, [r4, #96]
	ldr	r3, [r0, #8]
.L1736:
	ldr	r3, [r3, #4]
	blx	r3
	ldr	r0, [r4, #88]
	ldr	r3, [r0, #8]
	ldr	r2, [r3, #36]
	cmp	r2, #0
	beq	.L1737
	blx	r2
	ldr	r0, [r4, #88]
	ldr	r3, [r0, #8]
.L1737:
	ldr	r3, [r3, #4]
	blx	r3
	ldr	r0, [r4, #92]
	ldr	r3, [r0, #8]
	ldr	r2, [r3, #36]
	cmp	r2, #0
	beq	.L1738
	blx	r2
	ldr	r0, [r4, #92]
	ldr	r3, [r0, #8]
.L1738:
	ldr	r3, [r3, #4]
	blx	r3
	ldr	lr, [sp, #4]
	add	r2, r4, #408
	mov	r0, #4
	ldr	r1, [r4, #388]
	ldr	r4, [sp]
	add	sp, sp, #8
	b	queue_work_on
	.fnend
	.size	rmnet_smd_disable, .-rmnet_smd_disable
	.align	2
	.syntax unified
	.arm
	.fpu softvfp
	.type	rmnet_smd_ch_probe, %function
rmnet_smd_ch_probe:
	.fnstart
	@ args = 0, pretend = 0, frame = 0
	@ frame_needed = 0, uses_anonymous_args = 0
	movw	r3, #:lower16:.LANCHOR1
	.save {r4, lr}
	str	r4, [sp, #-8]!
	mov	r0, #4
	movt	r3, #:upper16:.LANCHOR1
	str	lr, [sp, #4]
	ldr	r3, [r3, #2600]
	ldr	r1, [r3, #388]
	add	r2, r3, #392
	bl	queue_work_on
	ldr	r4, [sp]
	add	sp, sp, #4
	mov	r0, #0
	ldr	pc, [sp], #4
	.fnend
	.size	rmnet_smd_ch_probe, .-rmnet_smd_ch_probe
	.align	2
	.syntax unified
	.arm
	.fpu softvfp
	.type	gs_read_complete, %function
gs_read_complete:
	.fnstart
	@ args = 0, pretend = 0, frame = 0
	@ frame_needed = 0, uses_anonymous_args = 0
	strd	r4, [sp, #-16]!
	.save {r4, r5, r6, lr}
	mov	r5, r1
	str	r6, [sp, #8]
	str	lr, [sp, #12]
	ldr	r4, [r0]
	mov	r0, r4
	bl	_raw_spin_lock_irqsave
	ldr	ip, [r5, #48]
	mov	r6, r0
	add	r2, r4, #48
	add	r0, r5, #36
	ldr	r1, [r4, #52]
	ldr	r3, [r4, #128]
	add	r3, r3, ip
	str	r3, [r4, #128]
	bl	__list_add
	movw	r3, #:lower16:.LANCHOR1
	add	r2, r4, #60
	movt	r3, #:upper16:.LANCHOR1
	mov	r0, #4
	ldr	r1, [r3, #2604]
	bl	queue_work_on
	ldr	lr, [sp, #12]
	mov	r1, r6
	mov	r0, r4
	ldrd	r4, [sp]
	ldr	r6, [sp, #8]
	add	sp, sp, #16
	b	_raw_spin_unlock_irqrestore
	.fnend
	.size	gs_read_complete, .-gs_read_complete
	.align	2
	.syntax unified
	.arm
	.fpu softvfp
	.type	gs_unthrottle, %function
gs_unthrottle:
	.fnstart
	@ args = 0, pretend = 0, frame = 0
	@ frame_needed = 0, uses_anonymous_args = 0
	strd	r4, [sp, #-16]!
	.save {r4, r5, r6, lr}
	str	r6, [sp, #8]
	str	lr, [sp, #12]
	ldr	r4, [r0, #272]
	cmp	r4, #0
	beq	.L1753
	mov	r0, r4
	bl	_raw_spin_lock_irqsave
	ldr	r3, [r4, #4]
	mov	r5, r0
	cmp	r3, #0
	beq	.L1755
	movw	r3, #:lower16:.LANCHOR1
	add	r2, r4, #60
	movt	r3, #:upper16:.LANCHOR1
	mov	r0, #4
	ldr	r1, [r3, #2604]
	bl	queue_work_on
.L1755:
	mov	r1, r5
	mov	r0, r4
	ldrd	r4, [sp]
	ldr	r6, [sp, #8]
	ldr	lr, [sp, #12]
	add	sp, sp, #16
	b	_raw_spin_unlock_irqrestore
.L1753:
	ldrd	r4, [sp]
	ldr	r6, [sp, #8]
	add	sp, sp, #12
	ldr	pc, [sp], #4
	.fnend
	.size	gs_unthrottle, .-gs_unthrottle
	.align	2
	.syntax unified
	.arm
	.fpu softvfp
	.type	android_resume, %function
android_resume:
	.fnstart
	@ args = 0, pretend = 0, frame = 0
	@ frame_needed = 0, uses_anonymous_args = 0
	strd	r4, [sp, #-24]!
	.save {r4, r5, r6, r7, r8, lr}
	strd	r6, [sp, #8]
	mov	r6, r0
	add	r0, r0, #32
	str	r8, [sp, #16]
	str	lr, [sp, #20]
	bl	dev_get_drvdata
	movw	r3, #:lower16:.LANCHOR1
	ldr	r2, .L1770
	movt	r3, #:upper16:.LANCHOR1
	ldr	r3, [r3, #2228]
	cmp	r3, r2
	sub	r4, r3, #520
	bne	.L1763
	b	.L1761
.L1769:
	ldr	r3, [r4, #520]
	cmp	r3, r2
	sub	r4, r3, #520
	beq	.L1761
.L1763:
	ldr	r3, [r3, #-512]
	cmp	r0, r3
	bne	.L1769
.L1761:
	add	r5, r0, #60
	mov	r0, r5
	bl	_raw_spin_lock_irqsave
	ldrb	r3, [r4, #50]	@ zero_extendqisi2
	mov	r7, r0
	cmp	r3, #0
	beq	.L1764
	mov	r0, #0
	movw	r3, #:lower16:system_wq
	movt	r3, #:upper16:system_wq
	add	r2, r4, #180
	strb	r0, [r4, #50]
	ldr	r1, [r3]
	mov	r0, #4
	bl	queue_work_on
.L1764:
	mov	r0, r5
	mov	r1, r7
	bl	_raw_spin_unlock_irqrestore
	ldrd	r4, [sp]
	mov	r0, r6
	ldrd	r6, [sp, #8]
	ldr	r8, [sp, #16]
	ldr	lr, [sp, #20]
	add	sp, sp, #24
	b	composite_resume
.L1771:
	.align	2
.L1770:
	.word	.LANCHOR1+2228
	.fnend
	.size	android_resume, .-android_resume
	.align	2
	.syntax unified
	.arm
	.fpu softvfp
	.type	android_suspend, %function
android_suspend:
	.fnstart
	@ args = 0, pretend = 0, frame = 0
	@ frame_needed = 0, uses_anonymous_args = 0
	strd	r4, [sp, #-24]!
	.save {r4, r5, r6, r7, r8, lr}
	strd	r6, [sp, #8]
	mov	r6, r0
	add	r0, r0, #32
	str	r8, [sp, #16]
	str	lr, [sp, #20]
	bl	dev_get_drvdata
	movw	r3, #:lower16:.LANCHOR1
	ldr	r2, .L1779
	movt	r3, #:upper16:.LANCHOR1
	ldr	r3, [r3, #2228]
	cmp	r3, r2
	sub	r4, r3, #520
	bne	.L1775
	b	.L1773
.L1778:
	ldr	r3, [r4, #520]
	cmp	r3, r2
	sub	r4, r3, #520
	beq	.L1773
.L1775:
	ldr	r3, [r3, #-512]
	cmp	r0, r3
	bne	.L1778
.L1773:
	add	r5, r0, #60
	mov	r0, r5
	bl	_raw_spin_lock_irqsave
	ldrb	r3, [r4, #50]	@ zero_extendqisi2
	mov	r7, r0
	cmp	r3, #0
	bne	.L1776
	mov	r0, #1
	movw	r3, #:lower16:system_wq
	movt	r3, #:upper16:system_wq
	add	r2, r4, #180
	strb	r0, [r4, #50]
	ldr	r1, [r3]
	mov	r0, #4
	bl	queue_work_on
.L1776:
	mov	r0, r5
	mov	r1, r7
	bl	_raw_spin_unlock_irqrestore
	ldrd	r4, [sp]
	mov	r0, r6
	ldrd	r6, [sp, #8]
	ldr	r8, [sp, #16]
	ldr	lr, [sp, #20]
	add	sp, sp, #24
	b	composite_suspend
.L1780:
	.align	2
.L1779:
	.word	.LANCHOR1+2228
	.fnend
	.size	android_suspend, .-android_suspend
	.align	2
	.syntax unified
	.arm
	.fpu softvfp
	.type	kill_all_hid_devices, %function
kill_all_hid_devices:
	.fnstart
	@ args = 0, pretend = 0, frame = 0
	@ frame_needed = 0, uses_anonymous_args = 0
	strd	r4, [sp, #-32]!
	.save {r4, r5, r6, r7, r8, r9, r10, lr}
	strd	r6, [sp, #8]
	add	r7, r0, #88
	mov	r6, r0
	strd	r8, [sp, #16]
	add	r9, r0, #1760
	mov	r0, r7
	str	r10, [sp, #24]
	add	r9, r9, #8
	str	lr, [sp, #28]
	bl	_raw_spin_lock_irqsave
	ldr	r5, [r6, #1768]
	mov	r8, r0
	cmp	r5, r9
	ldr	r4, [r5]
	beq	.L1782
	add	r10, r6, #1776
	add	r10, r10, #8
	b	.L1783
.L1786:
	mov	r4, r3
.L1783:
	mov	r0, r5
	bl	list_del
	mov	r0, r5
	mov	r1, r10
	ldr	r2, [r6, #1784]
	bl	__list_add
	cmp	r9, r4
	mov	r5, r4
	ldr	r3, [r4]
	bne	.L1786
.L1782:
	mov	r9, r6
	ldr	r5, [r9, #1776]!
	cmp	r5, r9
	ldr	r4, [r5]
	beq	.L1784
	add	r10, r9, #8
	b	.L1785
.L1787:
	mov	r4, r3
.L1785:
	mov	r0, r5
	bl	list_del
	mov	r0, r5
	mov	r1, r10
	ldr	r2, [r6, #1784]
	bl	__list_add
	cmp	r9, r4
	mov	r5, r4
	ldr	r3, [r4]
	bne	.L1787
.L1784:
	mov	r1, r8
	mov	r0, r7
	bl	_raw_spin_unlock_irqrestore
	movw	r3, #:lower16:system_wq
	add	r2, r6, #1744
	ldrd	r4, [sp]
	movt	r3, #:upper16:system_wq
	ldrd	r6, [sp, #8]
	add	r2, r2, #8
	ldrd	r8, [sp, #16]
	mov	r0, #4
	ldr	r10, [sp, #24]
	ldr	lr, [sp, #28]
	add	sp, sp, #32
	ldr	r1, [r3]
	b	queue_work_on
	.fnend
	.size	kill_all_hid_devices, .-kill_all_hid_devices
	.align	2
	.global	gsdio_write_complete
	.syntax unified
	.arm
	.fpu softvfp
	.type	gsdio_write_complete, %function
gsdio_write_complete:
	.fnstart
	@ args = 0, pretend = 0, frame = 0
	@ frame_needed = 0, uses_anonymous_args = 0
	strd	r4, [sp, #-24]!
	.save {r4, r5, r6, r7, r8, lr}
	strd	r6, [sp, #8]
	str	r8, [sp, #16]
	str	lr, [sp, #20]
	ldr	r4, [r0]
	.pad #8
	sub	sp, sp, #8
	cmp	r4, #0
	beq	.L1801
	add	r6, r4, #4
	mov	r7, r0
	mov	r0, r6
	mov	r5, r1
	bl	_raw_spin_lock_irqsave
	mov	r1, r4
	mov	r8, r0
	ldr	r2, [r1, #52]!
	add	r0, r5, #36
	bl	__list_add
	ldr	r3, [r4, #76]
	add	r3, r3, #1
	str	r3, [r4, #76]
	ldr	r3, [r5, #44]
	cmn	r3, #108
	beq	.L1792
	cmp	r3, #0
	bne	.L1802
.L1793:
	movw	r3, #:lower16:.LANCHOR1
	add	r2, r4, #60
	movt	r3, #:upper16:.LANCHOR1
	mov	r0, #4
	ldr	r1, [r3, #2608]
	bl	queue_work_on
.L1792:
	mov	r1, r8
	mov	r0, r6
	add	sp, sp, #8
	@ sp needed
	ldrd	r4, [sp]
	ldrd	r6, [sp, #8]
	ldr	r8, [sp, #16]
	ldr	lr, [sp, #20]
	add	sp, sp, #24
	b	_raw_spin_unlock_irqrestore
.L1802:
	ldr	ip, [r7, #4]
	movw	r0, #:lower16:.LC91
	mov	r2, r4
	ldr	r1, .L1803
	movt	r0, #:upper16:.LC91
	str	ip, [sp]
	str	r3, [sp, #4]
	ldr	r3, [r4]
	bl	printk
	b	.L1793
.L1801:
	ldr	r1, .L1803
	movw	r0, #:lower16:.LC12
	movt	r0, #:upper16:.LC12
	add	sp, sp, #8
	@ sp needed
	ldrd	r4, [sp]
	ldrd	r6, [sp, #8]
	ldr	r8, [sp, #16]
	ldr	lr, [sp, #20]
	add	sp, sp, #24
	b	printk
.L1804:
	.align	2
.L1803:
	.word	.LANCHOR2+800
	.fnend
	.size	gsdio_write_complete, .-gsdio_write_complete
	.align	2
	.global	gsdio_ctrl_notify_modem
	.syntax unified
	.arm
	.fpu softvfp
	.type	gsdio_ctrl_notify_modem, %function
gsdio_ctrl_notify_modem:
	.fnstart
	@ args = 0, pretend = 0, frame = 0
	@ frame_needed = 0, uses_anonymous_args = 0
	strd	r4, [sp, #-16]!
	.save {r4, r5, r6, lr}
	movw	r4, #:lower16:.LANCHOR1
	movt	r4, #:upper16:.LANCHOR1
	str	r6, [sp, #8]
	ldr	r3, [r4]
	str	lr, [sp, #12]
	cmp	r1, r3
	bcs	.L1818
	cmp	r0, #0
	beq	.L1819
	mov	r3, #104
	lsl	r2, r2, #1
	mla	r1, r3, r1, r4
	and	r3, r2, #2
	ldr	r5, [r1, #24]
	ldr	r2, [r5, #180]
	cmp	r2, r3
	beq	.L1805
	ldr	r2, [r5, #108]
	str	r3, [r5, #180]
	cmp	r2, #0
	beq	.L1820
	cmp	r3, #0
	beq	.L1810
	ldr	r3, [r0, #136]
	cmp	r3, #0
	beq	.L1810
	ldr	r1, [r5, #176]
	blx	r3
.L1810:
	add	r2, r5, #80
	ldr	r1, [r4, #2608]
	mov	r0, #4
	ldrd	r4, [sp]
	ldr	r6, [sp, #8]
	ldr	lr, [sp, #12]
	add	sp, sp, #16
	b	queue_work_on
.L1805:
	ldrd	r4, [sp]
	ldr	r6, [sp, #8]
	add	sp, sp, #12
	ldr	pc, [sp], #4
.L1819:
	movw	r0, #:lower16:.LC93
	ldrd	r4, [sp]
	ldr	r6, [sp, #8]
	movt	r0, #:upper16:.LC93
	ldr	lr, [sp, #12]
	add	sp, sp, #16
	ldr	r1, .L1821
	b	printk
.L1818:
	movw	r0, #:lower16:.LC92
	mov	r2, r1
	ldrd	r4, [sp]
	ldr	r6, [sp, #8]
	movt	r0, #:upper16:.LC92
	ldr	lr, [sp, #12]
	add	sp, sp, #16
	ldr	r1, .L1821
	b	printk
.L1820:
	movw	r0, #:lower16:.LC94
	mov	r2, r5
	ldr	r3, [r5]
	ldr	r1, .L1821
	movt	r0, #:upper16:.LC94
	ldrd	r4, [sp]
	ldr	r6, [sp, #8]
	ldr	lr, [sp, #12]
	add	sp, sp, #16
	b	printk
.L1822:
	.align	2
.L1821:
	.word	.LANCHOR2+824
	.fnend
	.size	gsdio_ctrl_notify_modem, .-gsdio_ctrl_notify_modem
	.align	2
	.syntax unified
	.arm
	.fpu softvfp
	.type	gsmd_write_complete, %function
gsmd_write_complete:
	.fnstart
	@ args = 0, pretend = 0, frame = 0
	@ frame_needed = 0, uses_anonymous_args = 0
	strd	r4, [sp, #-20]!
	.save {r4, r5, r6, r7, lr}
	strd	r6, [sp, #8]
	str	lr, [sp, #16]
	ldr	r7, [r0]
	.pad #12
	sub	sp, sp, #12
	cmp	r7, #0
	beq	.L1835
	add	r6, r7, #4
	mov	r5, r0
	mov	r0, r6
	mov	r4, r1
	bl	_raw_spin_lock
	ldr	r3, [r7, #72]
	ldr	r3, [r3, #8]
	tst	r3, #1
	beq	.L1825
	ldr	r3, [r4, #44]
	cmn	r3, #108
	beq	.L1825
	cmp	r3, #0
	bne	.L1836
.L1827:
	mov	r1, r7
	add	r0, r4, #36
	ldr	r2, [r1, #44]!
	bl	__list_add
	movw	r3, #:lower16:.LANCHOR1
	add	r2, r7, #52
	movt	r3, #:upper16:.LANCHOR1
	mov	r0, #4
	ldr	r1, [r3, #2612]
	bl	queue_work_on
	mov	r0, r6
	add	sp, sp, #12
	@ sp needed
	ldrd	r4, [sp]
	ldrd	r6, [sp, #8]
	ldr	lr, [sp, #16]
	add	sp, sp, #20
	b	_raw_spin_unlock
.L1825:
	mov	r0, r6
	bl	_raw_spin_unlock
	ldr	r0, [r4]
	bl	kfree
	ldr	r3, [r5, #8]
	mov	r1, r4
	mov	r0, r5
	ldr	r3, [r3, #12]
	add	sp, sp, #12
	@ sp needed
	ldrd	r4, [sp]
	ldrd	r6, [sp, #8]
	ldr	lr, [sp, #16]
	add	sp, sp, #20
	bx	r3	@ indirect register sibling call
.L1835:
	ldr	r1, .L1837
	movw	r0, #:lower16:.LC12
	movt	r0, #:upper16:.LC12
	add	sp, sp, #12
	@ sp needed
	ldrd	r4, [sp]
	ldrd	r6, [sp, #8]
	ldr	lr, [sp, #16]
	add	sp, sp, #20
	b	printk
.L1836:
	ldr	ip, [r5, #4]
	movw	r0, #:lower16:.LC91
	mov	r2, r7
	ldr	r1, .L1837
	movt	r0, #:upper16:.LC91
	str	ip, [sp]
	str	r3, [sp, #4]
	ldr	r3, [r7]
	bl	printk
	b	.L1827
.L1838:
	.align	2
.L1837:
	.word	.LANCHOR2+848
	.fnend
	.size	gsmd_write_complete, .-gsmd_write_complete
	.align	2
	.syntax unified
	.arm
	.fpu softvfp
	.type	gsmd_read_complete, %function
gsmd_read_complete:
	.fnstart
	@ args = 0, pretend = 0, frame = 0
	@ frame_needed = 0, uses_anonymous_args = 0
	strd	r4, [sp, #-24]!
	.save {r4, r5, r6, r7, r8, lr}
	strd	r6, [sp, #8]
	str	r8, [sp, #16]
	str	lr, [sp, #20]
	ldr	r7, [r0]
	cmp	r7, #0
	beq	.L1847
	add	r6, r7, #4
	mov	r5, r0
	mov	r0, r6
	mov	r4, r1
	bl	_raw_spin_lock
	ldr	r3, [r7, #72]
	ldr	r3, [r3, #8]
	tst	r3, #1
	beq	.L1841
	ldr	r3, [r4, #44]
	cmn	r3, #108
	beq	.L1841
	add	r0, r4, #36
	add	r2, r7, #20
	ldr	r1, [r7, #24]
	bl	__list_add
	movw	r3, #:lower16:.LANCHOR1
	add	r2, r7, #28
	movt	r3, #:upper16:.LANCHOR1
	mov	r0, #4
	ldr	r1, [r3, #2612]
	bl	queue_work_on
	ldrd	r4, [sp]
	mov	r0, r6
	ldrd	r6, [sp, #8]
	ldr	r8, [sp, #16]
	ldr	lr, [sp, #20]
	add	sp, sp, #24
	b	_raw_spin_unlock
.L1841:
	mov	r0, r6
	bl	_raw_spin_unlock
	ldr	r0, [r4]
	bl	kfree
	ldr	r3, [r5, #8]
	mov	r1, r4
	mov	r0, r5
	ldrd	r4, [sp]
	ldrd	r6, [sp, #8]
	ldr	r8, [sp, #16]
	ldr	lr, [sp, #20]
	add	sp, sp, #24
	ldr	r3, [r3, #12]
	bx	r3	@ indirect register sibling call
.L1847:
	movw	r0, #:lower16:.LC12
	ldrd	r4, [sp]
	ldrd	r6, [sp, #8]
	movt	r0, #:upper16:.LC12
	ldr	r8, [sp, #16]
	ldr	lr, [sp, #20]
	add	sp, sp, #24
	ldr	r1, .L1848
	b	printk
.L1849:
	.align	2
.L1848:
	.word	.LANCHOR2+868
	.fnend
	.size	gsmd_read_complete, .-gsmd_read_complete
	.align	2
	.syntax unified
	.arm
	.fpu softvfp
	.type	acc_complete_set_hid_report_desc, %function
acc_complete_set_hid_report_desc:
	.fnstart
	@ args = 0, pretend = 0, frame = 0
	@ frame_needed = 0, uses_anonymous_args = 0
	strd	r4, [sp, #-16]!
	.save {r4, r5, r6, lr}
	str	r6, [sp, #8]
	str	lr, [sp, #12]
	ldr	r4, [r1, #32]
	ldr	r3, [r1, #44]
	ldr	r5, [r1, #48]
	ldr	r6, [r4, #12]
	cmp	r3, #0
	bne	.L1854
	ldr	r0, [r4, #20]
	mov	r2, r5
	ldr	r3, [r4, #28]
	ldr	r1, [r1]
	add	r0, r0, r3
	bl	memcpy
	ldr	r3, [r4, #24]
	ldr	r2, [r4, #28]
	add	r5, r5, r2
	cmp	r5, r3
	str	r5, [r4, #28]
	beq	.L1855
	ldrd	r4, [sp]
	ldr	r6, [sp, #8]
	add	sp, sp, #12
	ldr	pc, [sp], #4
.L1855:
	movw	r3, #:lower16:system_wq
	add	r2, r6, #1744
	ldrd	r4, [sp]
	movt	r3, #:upper16:system_wq
	ldr	r6, [sp, #8]
	add	r2, r2, #8
	ldr	lr, [sp, #12]
	mov	r0, #4
	add	sp, sp, #16
	ldr	r1, [r3]
	b	queue_work_on
.L1854:
	movw	r0, #:lower16:.LC95
	ldrd	r4, [sp]
	mov	r1, r3
	ldr	r6, [sp, #8]
	movt	r0, #:upper16:.LC95
	ldr	lr, [sp, #12]
	add	sp, sp, #16
	b	printk
	.fnend
	.size	acc_complete_set_hid_report_desc, .-acc_complete_set_hid_report_desc
	.align	2
	.syntax unified
	.arm
	.fpu softvfp
	.type	rmnet_sdio_setup, %function
rmnet_sdio_setup:
	.fnstart
	@ args = 0, pretend = 0, frame = 8
	@ frame_needed = 0, uses_anonymous_args = 0
	strd	r4, [sp, #-36]!
	.save {r4, r5, r6, r7, r8, r9, r10, fp, lr}
	strd	r6, [sp, #8]
	strd	r8, [sp, #16]
	strd	r10, [sp, #24]
	str	lr, [sp, #32]
	ldr	r2, [r0, #20]
	.pad #28
	sub	sp, sp, #28
	ldr	r3, [r0, #192]
	ldrh	r8, [r1, #2]	@ unaligned
	ldrh	r6, [r1, #6]	@ unaligned
	ldr	r7, [r2, #24]
	cmp	r3, #0
	ldr	r5, [r7, #4]
	beq	.L1865
	ldrh	r3, [r1]	@ unaligned
	movw	r2, #8482
	mov	r9, r1
	mov	r4, r0
	rev16	r3, r3
	uxth	r3, r3
	cmp	r3, r2
	beq	.L1858
	movw	r2, #41217
	cmp	r3, r2
	beq	.L1859
	cmp	r3, #8448
	beq	.L1870
.L1867:
	mvn	r4, #94
.L1856:
	mov	r0, r4
	add	sp, sp, #28
	@ sp needed
	ldrd	r4, [sp]
	ldrd	r6, [sp, #8]
	ldrd	r8, [sp, #16]
	ldrd	r10, [sp, #24]
	add	sp, sp, #32
	ldr	pc, [sp], #4
.L1859:
	cmp	r8, #0
	bne	.L1867
	ldrh	r3, [r1, #4]	@ unaligned
	add	r10, r0, #188
	mov	r0, r10
	str	r3, [sp, #20]
	bl	_raw_spin_lock
	mov	r2, r4
	ldr	fp, [r2, #120]!
	cmp	fp, r2
	beq	.L1871
	mov	r0, fp
	sub	r9, fp, #8
	bl	list_del
	ldr	r2, [r4, #128]
	mov	r0, r10
	sub	r2, r2, #1
	str	r2, [r4, #128]
	bl	_raw_spin_unlock
	ldmdb	fp, {r1, r8}
	ldr	r0, [r5]
	cmp	r6, r8
	movcc	r8, r6
	mov	r2, r8
	bl	memcpy
	movw	r2, #:lower16:rmnet_sdio_response_complete
	str	r4, [r5, #32]
	movt	r2, #:upper16:rmnet_sdio_response_complete
	str	r2, [r5, #28]
	ldr	r0, [fp, #-8]
	bl	kfree
	mov	r0, r9
	bl	kfree
	ldr	r3, [r4, #368]
	cmp	r8, r6
	movge	r6, #0
	movlt	r6, #1
	add	r3, r3, #1
	str	r3, [r4, #368]
.L1861:
	ldrb	r3, [r5, #26]	@ zero_extendqisi2
	str	r8, [r5, #4]
	mov	r1, r5
	mov	r2, #32
	bfi	r3, r6, #1, #1
	strb	r3, [r5, #26]
	ldr	r3, [r7]
	ldr	r0, [r3, #4]
	ldr	r3, [r0, #8]
	ldr	r3, [r3, #16]
	blx	r3
	subs	r4, r0, #0
	bge	.L1856
	ldr	r0, [r7]
	movw	r1, #:lower16:.LC60
	mov	r2, r4
	movt	r1, #:upper16:.LC60
	add	r0, r0, #32
	bl	dev_err
	b	.L1856
.L1870:
	movw	r3, #:lower16:rmnet_sdio_command_complete
	mov	r8, r6
	str	r0, [r5, #32]
	movt	r3, #:upper16:rmnet_sdio_command_complete
	mov	r6, #0
	str	r3, [r5, #28]
	b	.L1861
.L1858:
	ldr	r3, [r0, #332]
	tst	r8, #1
	add	r2, r0, #336
	mov	r8, #0
	orrne	r3, r3, #2
	biceq	r3, r3, #2
	str	r3, [r0, #332]
	mov	r0, #4
	ldr	r1, [r4, #200]
	bl	queue_work_on
	subs	r6, r6, r8
	movne	r6, #1
	b	.L1861
.L1865:
	mvn	r4, #106
	b	.L1856
.L1871:
	ldr	r0, [r7]
	movw	r1, #:lower16:.LC96
	str	r8, [sp]
	ldr	r2, [sp, #20]
	movt	r1, #:upper16:.LC96
	mvn	r4, #94
	ldrb	r3, [r9, #1]	@ zero_extendqisi2
	add	r0, r0, #32
	str	r2, [sp, #4]
	ldrb	r2, [r9]	@ zero_extendqisi2
	str	r6, [sp, #8]
	bl	_dev_info
	mov	r0, r10
	bl	_raw_spin_unlock
	b	.L1856
	.fnend
	.size	rmnet_sdio_setup, .-rmnet_sdio_setup
	.align	2
	.syntax unified
	.arm
	.fpu softvfp
	.type	android_disconnect, %function
android_disconnect:
	.fnstart
	@ args = 0, pretend = 0, frame = 0
	@ frame_needed = 0, uses_anonymous_args = 0
	strd	r4, [sp, #-16]!
	.save {r4, r5, r6, lr}
	mov	r5, r0
	add	r0, r0, #32
	str	r6, [sp, #8]
	movw	r6, #:lower16:.LANCHOR1
	movt	r6, #:upper16:.LANCHOR1
	str	lr, [sp, #12]
	bl	dev_get_drvdata
	ldr	r3, [r6, #2228]
	mov	r2, r0
	ldr	r1, .L1878
	sub	r4, r3, #520
	cmp	r3, r1
	bne	.L1875
	b	.L1873
.L1877:
	ldr	r3, [r4, #520]
	cmp	r3, r1
	sub	r4, r3, #520
	beq	.L1873
.L1875:
	ldr	r3, [r3, #-512]
	cmp	r2, r3
	bne	.L1877
.L1873:
	mov	r0, r5
	add	r5, r2, #60
	bl	composite_disconnect
	ldr	r0, [r6, #2504]
	bl	kill_all_hid_devices
	mov	r0, r5
	bl	_raw_spin_lock_irqsave
	mov	r2, #0
	movw	r3, #:lower16:system_wq
	movt	r3, #:upper16:system_wq
	mov	r6, r0
	strb	r2, [r4, #48]
	ldr	r1, [r3]
	add	r2, r4, #180
	mov	r0, #4
	bl	queue_work_on
	ldr	lr, [sp, #12]
	mov	r1, r6
	mov	r0, r5
	ldrd	r4, [sp]
	ldr	r6, [sp, #8]
	add	sp, sp, #16
	b	_raw_spin_unlock_irqrestore
.L1879:
	.align	2
.L1878:
	.word	.LANCHOR1+2228
	.fnend
	.size	android_disconnect, .-android_disconnect
	.align	2
	.syntax unified
	.arm
	.fpu softvfp
	.type	ghsuart_ctrl_probe, %function
ghsuart_ctrl_probe:
	.fnstart
	@ args = 0, pretend = 0, frame = 0
	@ frame_needed = 0, uses_anonymous_args = 0
	strd	r4, [sp, #-16]!
	.save {r4, r5, r6, lr}
	movw	r2, #:lower16:.LANCHOR1
	mov	r1, #84
	str	r6, [sp, #8]
	movt	r2, #:upper16:.LANCHOR1
	str	lr, [sp, #12]
	ldr	r3, [r0, #4]
	mov	r0, #1
	mla	r3, r1, r3, r2
	ldr	r4, [r3, #1864]
	add	r1, r4, #88
	add	r5, r4, #8
	bl	_set_bit
	mov	r0, r5
	bl	_raw_spin_lock_irqsave
	ldr	r3, [r4, #12]
	mov	r6, r0
	cmp	r3, #0
	beq	.L1881
	add	r2, r4, #36
	mov	r0, #4
	ldr	r1, [r4, #32]
	bl	queue_work_on
.L1881:
	mov	r0, r5
	mov	r1, r6
	bl	_raw_spin_unlock_irqrestore
	ldrd	r4, [sp]
	mov	r0, #0
	ldr	r6, [sp, #8]
	add	sp, sp, #12
	ldr	pc, [sp], #4
	.fnend
	.size	ghsuart_ctrl_probe, .-ghsuart_ctrl_probe
	.align	2
	.syntax unified
	.arm
	.fpu softvfp
	.type	ghsuart_data_probe, %function
ghsuart_data_probe:
	.fnstart
	@ args = 0, pretend = 0, frame = 0
	@ frame_needed = 0, uses_anonymous_args = 0
	movw	r2, #:lower16:.LANCHOR1
	.save {r4, lr}
	str	r4, [sp, #-8]!
	movt	r2, #:upper16:.LANCHOR1
	str	lr, [sp, #4]
	ldr	r3, [r0, #4]
	ldr	r1, [r2, #2032]
	cmp	r1, r3
	bls	.L1891
	mov	r1, #84
	mov	r0, #1
	mla	r2, r1, r3, r2
	ldr	r4, [r2, #2036]
	add	r1, r4, #188
	bl	_set_bit
	ldr	r0, [r4, #4]
	cmp	r0, #0
	beq	.L1886
	add	r2, r4, #112
	mov	r0, #4
	ldr	r1, [r4, #108]
	bl	queue_work_on
	mov	r0, #0
.L1886:
	ldr	r4, [sp]
	add	sp, sp, #4
	ldr	pc, [sp], #4
.L1891:
	movw	r0, #:lower16:.LC97
	mov	r2, r3
	ldr	r1, .L1892
	movt	r0, #:upper16:.LC97
	bl	printk
	mvn	r0, #21
	b	.L1886
.L1893:
	.align	2
.L1892:
	.word	.LANCHOR2+888
	.fnend
	.size	ghsuart_data_probe, .-ghsuart_data_probe
	.align	2
	.syntax unified
	.arm
	.fpu softvfp
	.type	ecm_qc_suspend, %function
ecm_qc_suspend:
	.fnstart
	@ args = 0, pretend = 0, frame = 0
	@ frame_needed = 0, uses_anonymous_args = 0
	@ link register save eliminated.
	movw	r3, #:lower16:.LANCHOR1
	mov	r0, #4
	movt	r3, #:upper16:.LANCHOR1
	ldr	r2, [r3, #2616]
	ldr	r1, [r3, #2620]
	add	r2, r2, #200
	b	queue_work_on
	.fnend
	.size	ecm_qc_suspend, .-ecm_qc_suspend
	.align	2
	.syntax unified
	.arm
	.fpu softvfp
	.type	rndis_qc_suspend, %function
rndis_qc_suspend:
	.fnstart
	@ args = 0, pretend = 0, frame = 0
	@ frame_needed = 0, uses_anonymous_args = 0
	@ link register save eliminated.
	b	ecm_qc_suspend
	.fnend
	.size	rndis_qc_suspend, .-rndis_qc_suspend
	.align	2
	.syntax unified
	.arm
	.fpu softvfp
	.type	mbim_suspend, %function
mbim_suspend:
	.fnstart
	@ args = 0, pretend = 0, frame = 0
	@ frame_needed = 0, uses_anonymous_args = 0
	movw	r0, #:lower16:.LC98
	.save {r4, lr}
	str	r4, [sp, #-8]!
	ldr	r1, .L1898
	movt	r0, #:upper16:.LC98
	str	lr, [sp, #4]
	bl	printk
	movw	r3, #:lower16:.LANCHOR1
	ldr	r4, [sp]
	mov	r0, #4
	movt	r3, #:upper16:.LANCHOR1
	ldr	lr, [sp, #4]
	add	sp, sp, #8
	ldr	r2, [r3, #2616]
	ldr	r1, [r3, #2620]
	add	r2, r2, #200
	b	queue_work_on
.L1899:
	.align	2
.L1898:
	.word	.LANCHOR2+908
	.fnend
	.size	mbim_suspend, .-mbim_suspend
	.align	2
	.syntax unified
	.arm
	.fpu softvfp
	.type	ecm_qc_resume, %function
ecm_qc_resume:
	.fnstart
	@ args = 0, pretend = 0, frame = 0
	@ frame_needed = 0, uses_anonymous_args = 0
	@ link register save eliminated.
	movw	r3, #:lower16:.LANCHOR1
	mov	r0, #4
	movt	r3, #:upper16:.LANCHOR1
	ldr	r2, [r3, #2616]
	ldr	r1, [r3, #2620]
	add	r2, r2, #216
	b	queue_work_on
	.fnend
	.size	ecm_qc_resume, .-ecm_qc_resume
	.align	2
	.syntax unified
	.arm
	.fpu softvfp
	.type	rndis_qc_resume, %function
rndis_qc_resume:
	.fnstart
	@ args = 0, pretend = 0, frame = 0
	@ frame_needed = 0, uses_anonymous_args = 0
	@ link register save eliminated.
	b	ecm_qc_resume
	.fnend
	.size	rndis_qc_resume, .-rndis_qc_resume
	.align	2
	.syntax unified
	.arm
	.fpu softvfp
	.type	mbim_resume, %function
mbim_resume:
	.fnstart
	@ args = 0, pretend = 0, frame = 0
	@ frame_needed = 0, uses_anonymous_args = 0
	movw	r0, #:lower16:.LC99
	.save {r4, lr}
	str	r4, [sp, #-8]!
	ldr	r1, .L1904
	movt	r0, #:upper16:.LC99
	str	lr, [sp, #4]
	bl	printk
	movw	r3, #:lower16:.LANCHOR1
	ldr	r4, [sp]
	mov	r0, #4
	movt	r3, #:upper16:.LANCHOR1
	ldr	lr, [sp, #4]
	add	sp, sp, #8
	ldr	r2, [r3, #2616]
	ldr	r1, [r3, #2620]
	add	r2, r2, #216
	b	queue_work_on
.L1905:
	.align	2
.L1904:
	.word	.LANCHOR2+924
	.fnend
	.size	mbim_resume, .-mbim_resume
	.align	2
	.syntax unified
	.arm
	.fpu softvfp
	.type	rmnet_smd_debug_read_stats, %function
rmnet_smd_debug_read_stats:
	.fnstart
	@ args = 0, pretend = 0, frame = 184
	@ frame_needed = 0, uses_anonymous_args = 0
	strd	r4, [sp, #-36]!
	.save {r4, r5, r6, r7, r8, r9, r10, fp, lr}
	movw	r5, #:lower16:kmalloc_caches
	strd	r6, [sp, #8]
	movt	r5, #:upper16:kmalloc_caches
	strd	r8, [sp, #16]
	strd	r10, [sp, #24]
	str	lr, [sp, #32]
	ldr	r4, [r0, #124]
	.pad #260
	sub	sp, sp, #260
	str	r1, [sp, #84]
	strd	r2, [sp, #88]
	add	lr, r4, #260
	add	ip, r4, #324
	ldrd	r2, [lr]
	ldrd	r0, [lr, #8]
	ldrd	r6, [ip]
	strd	r2, [sp, #128]
	ldrd	r2, [lr, #16]
	strd	r0, [sp, #136]
	ldrd	r0, [lr, #24]
	strd	r2, [sp, #144]
	ldrd	r2, [lr, #32]
	strd	r0, [sp, #152]
	ldrd	r0, [lr, #40]
	strd	r6, [sp, #192]
	ldrd	r6, [ip, #24]
	strd	r2, [sp, #160]
	ldrd	r2, [lr, #48]
	strd	r0, [sp, #168]
	ldrd	r0, [lr, #56]
	strd	r2, [sp, #176]
	ldrd	r2, [ip, #8]
	strd	r0, [sp, #184]
	ldrd	r0, [ip, #16]
	strd	r2, [sp, #200]
	ldrd	r2, [ip, #32]
	strd	r0, [sp, #208]
	ldrd	r0, [ip, #40]
	strd	r6, [sp, #216]
	ldrd	r6, [ip, #48]
	strd	r2, [sp, #224]
	ldrd	r2, [ip, #56]
	strd	r0, [sp, #232]
	ldr	r0, [r5, #36]
	strd	r6, [sp, #240]
	strd	r2, [sp, #248]
	cmp	r0, #0
	beq	.L1909
	mov	r2, #512
	movw	r1, #32976
	bl	kmem_cache_alloc_trace
	subs	r5, r0, #0
	beq	.L1912
.L1907:
	add	r10, r4, #164
	mov	r0, r10
	bl	_raw_spin_lock_irqsave
	ldr	lr, [r4, #168]
	ldr	r3, [r4, #440]
	ldr	r2, [r4, #444]
	ldr	r8, [r4, #424]
	ldr	r9, [r4, #428]
	ldr	r7, [r4, #432]
	ldr	ip, [r4, #448]
	strd	r2, [sp, #72]
	ldr	r3, [sp, #172]
	ldr	r2, [sp, #236]
	sub	r1, r9, r8
	ldr	r6, [r4, #436]
	str	r0, [sp, #112]
	ldr	r0, [r4, #260]
	str	ip, [sp, #80]
	ldr	fp, [r4, #452]
	str	lr, [sp, #96]
	strd	r2, [sp, #116]
	str	r1, [sp, #124]
	bl	smd_read_avail
	str	r0, [sp, #100]
	ldr	r0, [r4, #260]
	bl	smd_write_avail
	str	r0, [sp, #104]
	ldr	r0, [r4, #324]
	bl	smd_read_avail
	str	r0, [sp, #108]
	ldr	r0, [r4, #324]
	sub	r4, r7, r6
	bl	smd_write_avail
	ldr	r3, [sp, #76]
	str	r8, [sp, #12]
	ldr	ip, [sp, #80]
	str	r6, [sp, #24]
	ldr	r2, [sp, #116]
	str	r4, [sp, #28]
	ldr	r6, [sp, #72]
	ldr	r1, [sp, #96]
	sub	ip, ip, fp
	ldr	r4, [sp, #76]
	str	r2, [sp]
	ldr	r2, [sp, #72]
	str	r0, [sp, #68]
	mov	r0, r5
	str	ip, [sp, #52]
	ldr	ip, [sp, #100]
	stmib	sp, {r1, r9}
	ldr	r1, [sp, #124]
	sub	lr, r2, r3
	movw	r2, #:lower16:.LC100
	ldr	r3, [sp, #120]
	movt	r2, #:upper16:.LC100
	str	ip, [sp, #56]
	ldr	ip, [sp, #104]
	str	lr, [sp, #40]
	ldr	lr, [sp, #80]
	str	r1, [sp, #16]
	mov	r1, #512
	str	r7, [sp, #20]
	str	r6, [sp, #32]
	str	ip, [sp, #60]
	ldr	ip, [sp, #108]
	str	r4, [sp, #36]
	str	lr, [sp, #44]
	str	fp, [sp, #48]
	str	ip, [sp, #64]
	bl	scnprintf
	mov	r4, r0
	ldr	r1, [sp, #112]
	mov	r0, r10
	bl	_raw_spin_unlock_irqrestore
	str	r4, [sp]
	mov	r3, r5
	ldrd	r0, [sp, #84]
	ldr	r2, [sp, #92]
	bl	simple_read_from_buffer
	mov	r4, r0
	mov	r0, r5
	bl	kfree
.L1906:
	mov	r0, r4
	add	sp, sp, #260
	@ sp needed
	ldrd	r4, [sp]
	ldrd	r6, [sp, #8]
	ldrd	r8, [sp, #16]
	ldrd	r10, [sp, #24]
	add	sp, sp, #32
	ldr	pc, [sp], #4
.L1909:
	mov	r5, #16
	b	.L1907
.L1912:
	mvn	r4, #11
	b	.L1906
	.fnend
	.size	rmnet_smd_debug_read_stats, .-rmnet_smd_debug_read_stats
	.align	2
	.syntax unified
	.arm
	.fpu softvfp
	.type	rmnet_sdio_read_stats, %function
rmnet_sdio_read_stats:
	.fnstart
	@ args = 0, pretend = 0, frame = 0
	@ frame_needed = 0, uses_anonymous_args = 0
	movw	ip, #:lower16:kmalloc_caches
	strd	r4, [sp, #-32]!
	.save {r4, r5, r6, r7, r8, r9, r10, lr}
	movt	ip, #:upper16:kmalloc_caches
	strd	r6, [sp, #8]
	mov	r7, r1
	strd	r8, [sp, #16]
	mov	r8, r2
	mov	r9, r3
	str	r10, [sp, #24]
	str	lr, [sp, #28]
	ldr	r4, [r0, #124]
	.pad #64
	sub	sp, sp, #64
	ldr	r0, [ip, #40]
	cmp	r0, #0
	beq	.L1916
	mov	r2, #1024
	movw	r1, #32976
	bl	kmem_cache_alloc_trace
	subs	r5, r0, #0
	beq	.L1919
.L1914:
	add	r6, r4, #188
	mov	r0, r6
	bl	_raw_spin_lock_irqsave
	ldr	r1, [r4, #196]
	movw	r2, #:lower16:.LC101
	mov	r10, r0
	ldr	ip, [r4, #324]
	movt	r2, #:upper16:.LC101
	mov	r0, r5
	ldr	r3, [r4, #356]
	str	ip, [sp, #56]
	ldr	ip, [r4, #320]
	str	r1, [sp, #48]
	mov	r1, #4096
	str	ip, [sp, #52]
	ldr	ip, [r4, #128]
	str	ip, [sp, #44]
	ldr	ip, [r4, #368]
	str	ip, [sp, #40]
	ldr	ip, [r4, #332]
	str	ip, [sp, #36]
	ldr	ip, [r4, #116]
	str	ip, [sp, #32]
	ldr	ip, [r4, #372]
	str	ip, [sp, #28]
	ldr	ip, [r4, #328]
	str	ip, [sp, #24]
	ldr	ip, [r4, #180]
	str	ip, [sp, #20]
	ldr	ip, [r4, #168]
	str	ip, [sp, #16]
	ldr	ip, [r4, #360]
	str	ip, [sp, #12]
	ldr	ip, [r4, #364]
	str	ip, [sp, #8]
	ldr	ip, [r4, #152]
	str	ip, [sp, #4]
	ldr	ip, [r4, #140]
	str	ip, [sp]
	bl	scnprintf
	mov	r4, r0
	mov	r1, r10
	mov	r0, r6
	bl	_raw_spin_unlock_irqrestore
	str	r4, [sp]
	mov	r2, r9
	mov	r1, r8
	mov	r0, r7
	mov	r3, r5
	bl	simple_read_from_buffer
	mov	r4, r0
	mov	r0, r5
	bl	kfree
.L1913:
	mov	r0, r4
	add	sp, sp, #64
	@ sp needed
	ldrd	r4, [sp]
	ldrd	r6, [sp, #8]
	ldrd	r8, [sp, #16]
	ldr	r10, [sp, #24]
	add	sp, sp, #28
	ldr	pc, [sp], #4
.L1916:
	mov	r5, #16
	b	.L1914
.L1919:
	mvn	r4, #11
	b	.L1913
	.fnend
	.size	rmnet_sdio_read_stats, .-rmnet_sdio_read_stats
	.align	2
	.syntax unified
	.arm
	.fpu softvfp
	.type	rmnet_mux_read_stats, %function
rmnet_mux_read_stats:
	.fnstart
	@ args = 0, pretend = 0, frame = 32
	@ frame_needed = 0, uses_anonymous_args = 0
	movw	ip, #:lower16:kmalloc_caches
	strd	r4, [sp, #-36]!
	.save {r4, r5, r6, r7, r8, r9, r10, fp, lr}
	movt	ip, #:upper16:kmalloc_caches
	strd	r6, [sp, #8]
	mov	r7, r1
	strd	r8, [sp, #16]
	mov	r8, r2
	mov	r9, r3
	strd	r10, [sp, #24]
	str	lr, [sp, #32]
	ldr	r4, [r0, #124]
	.pad #92
	sub	sp, sp, #92
	ldr	r0, [ip, #40]
	cmp	r0, #0
	beq	.L1924
	mov	r2, #1024
	mov	r1, #208
	bl	kmem_cache_alloc_trace
	subs	r5, r0, #0
	beq	.L1928
.L1921:
	add	r6, r4, #368
	mov	r0, r6
	bl	_raw_spin_lock_irqsave
	ldr	r3, [r4, #208]
	ldr	r2, [r4, #364]
	ldr	fp, [r4, #404]
	ldr	r1, [r4, #408]
	str	r3, [sp, #60]
	ldr	r3, [r4, #232]
	str	r0, [sp, #84]
	ldr	r0, [r4, #412]
	sub	r2, r2, #1
	cmp	r2, #9
	ldr	r10, [r4, #416]
	movwhi	ip, #:lower16:.LC102
	ldr	lr, [r4, #424]
	str	r3, [sp, #64]
	ldr	r3, [r4, #312]
	movthi	ip, #:upper16:.LC102
	str	r3, [sp, #68]
	ldr	r3, [r4, #336]
	str	r0, [sp, #72]
	ldr	r0, [r4, #420]
	str	r3, [sp, #76]
	ldr	r3, [r4, #348]
	str	r3, [sp, #80]
	ldr	r3, [r4, #352]
	str	r3, [sp, #56]
	ldr	r3, [r4, #400]
	bls	.L1929
.L1923:
	ldr	r4, [r4, #356]
	movw	r2, #:lower16:.LC103
	str	fp, [sp]
	str	r10, [sp, #12]
	ldr	r10, [sp, #56]
	movt	r2, #:upper16:.LC103
	str	lr, [sp, #36]
	ldr	lr, [sp, #76]
	strd	r0, [sp, #4]
	mov	r1, #1024
	mov	r0, r5
	str	r10, [sp, #16]
	ldr	r10, [sp, #60]
	str	ip, [sp, #48]
	str	r4, [sp, #52]
	str	r10, [sp, #20]
	ldr	r10, [sp, #64]
	str	lr, [sp, #40]
	ldr	lr, [sp, #80]
	str	r10, [sp, #24]
	ldr	r10, [sp, #68]
	str	r10, [sp, #28]
	ldr	r10, [sp, #72]
	str	lr, [sp, #44]
	str	r10, [sp, #32]
	bl	scnprintf
	mov	r4, r0
	ldr	r1, [sp, #84]
	mov	r0, r6
	bl	_raw_spin_unlock_irqrestore
	str	r4, [sp]
	mov	r2, r9
	mov	r1, r8
	mov	r0, r7
	mov	r3, r5
	bl	simple_read_from_buffer
	mov	r4, r0
	mov	r0, r5
	bl	kfree
.L1920:
	mov	r0, r4
	add	sp, sp, #92
	@ sp needed
	ldrd	r4, [sp]
	ldrd	r6, [sp, #8]
	ldrd	r8, [sp, #16]
	ldrd	r10, [sp, #24]
	add	sp, sp, #32
	ldr	pc, [sp], #4
.L1929:
	movw	ip, #:lower16:.LANCHOR2
	movt	ip, #:upper16:.LANCHOR2
	add	r2, ip, r2, lsl #2
	ldr	ip, [r2, #936]
	b	.L1923
.L1924:
	mov	r5, #16
	b	.L1921
.L1928:
	mvn	r4, #11
	b	.L1920
	.fnend
	.size	rmnet_mux_read_stats, .-rmnet_mux_read_stats
	.align	2
	.syntax unified
	.arm
	.fpu softvfp
	.type	debug_read_status, %function
debug_read_status:
	.fnstart
	@ args = 0, pretend = 0, frame = 8
	@ frame_needed = 0, uses_anonymous_args = 0
	strd	r4, [sp, #-36]!
	.save {r4, r5, r6, r7, r8, r9, r10, fp, lr}
	strd	r6, [sp, #8]
	strd	r8, [sp, #16]
	strd	r10, [sp, #24]
	str	lr, [sp, #32]
	ldr	r5, [r0, #124]
	.pad #20
	sub	sp, sp, #20
	ldmib	r5, {r7, r8}
	cmp	r7, #0
	cmpne	r8, #0
	beq	.L1943
	mov	fp, r3
	movw	r3, #:lower16:kmalloc_caches
	movt	r3, #:upper16:kmalloc_caches
	mov	r9, r1
	ldr	r0, [r3, #36]
	mov	r10, r2
	cmp	r0, #0
	beq	.L1936
	mov	r2, #512
	movw	r1, #32976
	bl	kmem_cache_alloc_trace
	subs	r6, r0, #0
	beq	.L1944
.L1933:
	mov	r0, r5
	bl	_raw_spin_lock_irqsave
	movw	r2, #:lower16:.LC105
	mov	r1, #512
	ldr	r3, [r5, #128]
	movt	r2, #:upper16:.LC105
	str	r0, [sp, #12]
	mov	r0, r6
	bl	scnprintf
	movw	r2, #:lower16:.LC106
	rsb	r1, r0, #512
	ldr	r3, [r5, #132]
	mov	r4, r0
	movt	r2, #:upper16:.LC106
	add	r0, r6, r0
	bl	scnprintf
	ldr	ip, [r5, #128]
	add	r4, r4, r0
	movw	r2, #:lower16:.LC107
	ldr	r3, [r5, #132]
	rsb	r1, r4, #512
	add	r0, r6, r4
	movt	r2, #:upper16:.LC107
	sub	r3, ip, r3
	bl	scnprintf
	add	r4, r4, r0
	movw	r2, #:lower16:.LC108
	ldr	r3, [r5, #136]
	rsb	r1, r4, #512
	add	r0, r6, r4
	movt	r2, #:upper16:.LC108
	bl	scnprintf
	add	r4, r4, r0
	movw	r2, #:lower16:.LC109
	ldr	r3, [r5, #140]
	rsb	r1, r4, #512
	add	r0, r6, r4
	movt	r2, #:upper16:.LC109
	bl	scnprintf
	ldr	ip, [r5, #136]
	add	r4, r4, r0
	movw	r2, #:lower16:.LC110
	ldr	r3, [r5, #140]
	rsb	r1, r4, #512
	add	r0, r6, r4
	movt	r2, #:upper16:.LC110
	sub	r3, ip, r3
	bl	scnprintf
	add	r4, r4, r0
	movw	r2, #:lower16:.LC111
	ldr	r3, [r8, #156]
	rsb	r1, r4, #512
	add	r0, r6, r4
	movt	r2, #:upper16:.LC111
	bl	scnprintf
	ldr	r3, [r7, #108]
	add	r4, r4, r0
	cmp	r3, #0
	beq	.L1934
	mov	r0, r7
	blx	r3
	cmp	r0, #0
	movw	r2, #:lower16:.LC112
	rsb	r1, r4, #512
	add	r0, r6, r4
	movne	r3, #2
	moveq	r3, #0
	movt	r2, #:upper16:.LC112
	bl	scnprintf
	add	r4, r4, r0
.L1934:
	mov	r0, r5
	ldr	r1, [sp, #12]
	bl	_raw_spin_unlock_irqrestore
	str	r4, [sp]
	mov	r2, fp
	mov	r1, r10
	mov	r0, r9
	mov	r3, r6
	bl	simple_read_from_buffer
	mov	r4, r0
	mov	r0, r6
	bl	kfree
.L1930:
	mov	r0, r4
	add	sp, sp, #20
	@ sp needed
	ldrd	r4, [sp]
	ldrd	r6, [sp, #8]
	ldrd	r8, [sp, #16]
	ldrd	r10, [sp, #24]
	add	sp, sp, #32
	ldr	pc, [sp], #4
.L1936:
	mov	r6, #16
	b	.L1933
.L1944:
	mvn	r4, #11
	b	.L1930
.L1943:
	movw	r0, #:lower16:.LC104
	mvn	r4, #21
	movt	r0, #:upper16:.LC104
	bl	printk
	b	.L1930
	.fnend
	.size	debug_read_status, .-debug_read_status
	.align	2
	.syntax unified
	.arm
	.fpu softvfp
	.type	debug_sdio_read_stats, %function
debug_sdio_read_stats:
	.fnstart
	@ args = 0, pretend = 0, frame = 16
	@ frame_needed = 0, uses_anonymous_args = 0
	movw	r0, #:lower16:kmalloc_caches
	strd	r4, [sp, #-36]!
	.save {r4, r5, r6, r7, r8, r9, r10, fp, lr}
	movt	r0, #:upper16:kmalloc_caches
	strd	r6, [sp, #8]
	strd	r8, [sp, #16]
	strd	r10, [sp, #24]
	str	lr, [sp, #32]
	ldr	r0, [r0, #40]
	.pad #68
	sub	sp, sp, #68
	str	r1, [sp, #52]
	strd	r2, [sp, #56]
	cmp	r0, #0
	beq	.L1951
	mov	r2, #1024
	movw	r1, #32976
	bl	kmem_cache_alloc_trace
	subs	r10, r0, #0
	beq	.L1955
.L1946:
	movw	r8, #:lower16:.LANCHOR1
	movt	r8, #:upper16:.LANCHOR1
	ldr	r5, [r8]
	cmp	r5, #0
	beq	.L1949
	mov	r5, #0
	movw	r3, #:lower16:.LC113
	movt	r3, #:upper16:.LC113
	mov	r6, r5
	add	r7, r8, #4
	str	r3, [sp, #48]
.L1948:
	ldr	r4, [r7, #20]
	add	r7, r7, #104
	add	r9, r4, #4
	mov	r0, r9
	bl	_raw_spin_lock_irqsave
	ldr	ip, [r4, #112]
	mov	r3, r6
	rsb	r1, r5, #4096
	mov	fp, r0
	ldr	r2, [sp, #48]
	add	r0, r10, r5
	add	r6, r6, #1
	str	ip, [sp, #40]
	ldr	ip, [r4, #108]
	str	ip, [sp, #36]
	ldr	ip, [r4, #8]
	str	ip, [sp, #32]
	ldr	ip, [r4, #76]
	str	ip, [sp, #28]
	ldr	ip, [r4, #48]
	str	ip, [sp, #24]
	ldr	ip, [r4, #44]
	str	ip, [sp, #20]
	ldr	ip, [r4, #176]
	str	ip, [sp, #16]
	ldr	ip, [r4, #180]
	str	ip, [sp, #12]
	ldr	ip, [r4, #188]
	str	ip, [sp, #8]
	ldr	ip, [r4, #184]
	stm	sp, {r4, ip}
	bl	scnprintf
	add	r5, r5, r0
	mov	r1, fp
	mov	r0, r9
	bl	_raw_spin_unlock_irqrestore
	ldr	r3, [r8]
	cmp	r6, r3
	bcc	.L1948
.L1949:
	mov	r3, r10
	ldrd	r0, [sp, #52]
	str	r5, [sp]
	ldr	r2, [sp, #60]
	bl	simple_read_from_buffer
	mov	r4, r0
	mov	r0, r10
	bl	kfree
.L1945:
	mov	r0, r4
	add	sp, sp, #68
	@ sp needed
	ldrd	r4, [sp]
	ldrd	r6, [sp, #8]
	ldrd	r8, [sp, #16]
	ldrd	r10, [sp, #24]
	add	sp, sp, #32
	ldr	pc, [sp], #4
.L1951:
	mov	r10, #16
	b	.L1946
.L1955:
	mvn	r4, #11
	b	.L1945
	.fnend
	.size	debug_sdio_read_stats, .-debug_sdio_read_stats
	.align	2
	.syntax unified
	.arm
	.fpu softvfp
	.type	debug_smd_read_stats, %function
debug_smd_read_stats:
	.fnstart
	@ args = 0, pretend = 0, frame = 48
	@ frame_needed = 0, uses_anonymous_args = 0
	movw	r0, #:lower16:kmalloc_caches
	strd	r4, [sp, #-36]!
	.save {r4, r5, r6, r7, r8, r9, r10, fp, lr}
	movt	r0, #:upper16:kmalloc_caches
	strd	r6, [sp, #8]
	strd	r8, [sp, #16]
	strd	r10, [sp, #24]
	str	lr, [sp, #32]
	ldr	r0, [r0, #36]
	.pad #92
	sub	sp, sp, #92
	str	r1, [sp, #76]
	strd	r2, [sp, #80]
	cmp	r0, #0
	beq	.L1963
	mov	r2, #512
	movw	r1, #32976
	bl	kmem_cache_alloc_trace
	subs	r3, r0, #0
	str	r3, [sp, #64]
	beq	.L1969
.L1957:
	movw	r7, #:lower16:.LANCHOR1
	movt	r7, #:upper16:.LANCHOR1
	ldr	r3, [r7, #212]
	cmp	r3, #0
	beq	.L1961
	add	fp, r7, #216
	mov	r6, #0
	movw	r3, #:lower16:.LC114
	mov	r8, fp
	movt	r3, #:upper16:.LC114
	mov	r9, r6
	mov	fp, r7
	str	r3, [sp, #72]
.L1960:
	ldr	r3, [sp, #64]
	ldr	r7, [r8, #20]
	add	r3, r3, r9
	add	r5, r7, #4
	ldr	r10, [r7, #72]
	str	r3, [sp, #44]
	rsb	r3, r9, #512
	mov	r0, r5
	str	r3, [sp, #48]
	bl	_raw_spin_lock_irqsave
	ldr	r3, [r7, #8]
	ldr	r4, [r10]
	str	r3, [sp, #60]
	ldr	r3, [r7, #160]
	cmp	r4, #0
	moveq	lr, r4
	str	r3, [sp, #52]
	ldr	r3, [r7, #164]
	str	r0, [sp, #68]
	mov	r0, r4
	str	r3, [sp, #56]
	ldr	r3, [r7, #168]
	ldr	r7, [r7, #172]
	str	r3, [sp, #48]
	beq	.L1959
	bl	smd_read_avail
	ldr	lr, [r10]
	mov	r4, r0
	cmp	lr, #0
	mov	r0, lr
	beq	.L1959
	bl	smd_write_avail
	mov	lr, r0
.L1959:
	ldr	ip, [r10, #8]
	rsb	r1, r9, #512
	add	r8, r8, #104
	ldr	r10, [r10, #8]
	str	r7, [sp]
	ldr	r0, [sp, #44]
	str	r4, [sp, #20]
	ldr	r7, [sp, #52]
	ldr	r3, [sp, #48]
	and	ip, ip, #1
	ubfx	r10, r10, #1, #1
	ldr	r2, [sp, #72]
	str	lr, [sp, #24]
	str	r7, [sp, #8]
	ldr	r7, [sp, #56]
	str	r3, [sp, #4]
	mov	r3, r6
	add	r6, r6, #1
	str	ip, [sp, #28]
	str	r7, [sp, #12]
	ldr	r7, [sp, #60]
	str	r10, [sp, #32]
	str	r7, [sp, #16]
	bl	scnprintf
	add	r9, r9, r0
	ldr	r1, [sp, #68]
	mov	r0, r5
	bl	_raw_spin_unlock_irqrestore
	ldr	r3, [fp, #212]
	cmp	r6, r3
	bcc	.L1960
	mov	r3, r9
.L1961:
	ldr	r5, [sp, #64]
	str	r3, [sp]
	ldrd	r0, [sp, #76]
	ldr	r2, [sp, #84]
	mov	r3, r5
	bl	simple_read_from_buffer
	mov	r4, r0
	mov	r0, r5
	bl	kfree
.L1956:
	mov	r0, r4
	add	sp, sp, #92
	@ sp needed
	ldrd	r4, [sp]
	ldrd	r6, [sp, #8]
	ldrd	r8, [sp, #16]
	ldrd	r10, [sp, #24]
	add	sp, sp, #32
	ldr	pc, [sp], #4
.L1963:
	mov	r3, #16
	str	r3, [sp, #64]
	b	.L1957
.L1969:
	mvn	r4, #11
	b	.L1956
	.fnend
	.size	debug_smd_read_stats, .-debug_smd_read_stats
	.align	2
	.syntax unified
	.arm
	.fpu softvfp
	.type	gbam_read_stats, %function
gbam_read_stats:
	.fnstart
	@ args = 0, pretend = 0, frame = 0
	@ frame_needed = 0, uses_anonymous_args = 0
	movw	r0, #:lower16:kmalloc_caches
	strd	r4, [sp, #-36]!
	.save {r4, r5, r6, r7, r8, r9, r10, fp, lr}
	movt	r0, #:upper16:kmalloc_caches
	strd	r6, [sp, #8]
	strd	r8, [sp, #16]
	mov	r8, r1
	mov	r9, r2
	strd	r10, [sp, #24]
	mov	r10, r3
	str	lr, [sp, #32]
	ldr	r0, [r0, #40]
	.pad #68
	sub	sp, sp, #68
	cmp	r0, #0
	beq	.L1976
	mov	r2, #1024
	movw	r1, #32976
	bl	kmem_cache_alloc_trace
	subs	r5, r0, #0
	beq	.L1980
.L1971:
	movw	r3, #:lower16:.LANCHOR1
	movt	r3, #:upper16:.LANCHOR1
	ldr	r2, [r3, #424]
	cmp	r2, #0
	ble	.L1981
	ldr	r4, [r3, #428]
	cmp	r4, #0
	beq	.L1974
	add	r6, r4, #4
	add	r7, r4, #8
	mov	r0, r6
	bl	_raw_spin_lock_irqsave
	mov	fp, r0
	mov	r0, r7
	bl	_raw_spin_lock
	ldr	r0, [r4, #20]
	add	ip, r4, #20
	movw	r2, #:lower16:.LC115
	ldr	r1, [r4, #20]
	movt	r2, #:upper16:.LC115
	mov	r3, #0
	ubfx	r0, r0, #1, #1
	ubfx	r1, r1, #2, #1
	strd	r0, [sp, #52]
	ldr	lr, [r4, #68]
	mov	r1, #1024
	mov	r0, r5
	str	lr, [sp, #48]
	ldr	lr, [r4, #44]
	str	lr, [sp, #44]
	ldr	lr, [r4, #280]
	str	lr, [sp, #40]
	ldr	lr, [r4, #276]
	str	lr, [sp, #36]
	ldr	lr, [r4, #272]
	str	lr, [sp, #32]
	ldr	lr, [r4, #268]
	str	lr, [sp, #28]
	ldr	lr, [r4, #248]
	str	lr, [sp, #24]
	ldr	lr, [r4, #244]
	str	lr, [sp, #20]
	ldr	lr, [r4, #240]
	str	lr, [sp, #16]
	ldr	lr, [r4, #260]
	str	lr, [sp, #12]
	ldr	lr, [r4, #264]
	stm	sp, {r4, ip, lr}
	bl	scnprintf
	mov	r4, r0
	mov	r0, r7
	bl	_raw_spin_unlock
	mov	r1, fp
	mov	r0, r6
	bl	_raw_spin_unlock_irqrestore
.L1974:
	str	r4, [sp]
	mov	r2, r10
	mov	r1, r9
	mov	r0, r8
	mov	r3, r5
	bl	simple_read_from_buffer
	mov	r4, r0
	mov	r0, r5
	bl	kfree
.L1970:
	mov	r0, r4
	add	sp, sp, #68
	@ sp needed
	ldrd	r4, [sp]
	ldrd	r6, [sp, #8]
	ldrd	r8, [sp, #16]
	ldrd	r10, [sp, #24]
	add	sp, sp, #32
	ldr	pc, [sp], #4
.L1981:
	mov	r4, #0
	b	.L1974
.L1976:
	mov	r5, #16
	b	.L1971
.L1980:
	mvn	r4, #11
	b	.L1970
	.fnend
	.size	gbam_read_stats, .-gbam_read_stats
	.align	2
	.syntax unified
	.arm
	.fpu softvfp
	.type	gsmd_ctrl_read_stats, %function
gsmd_ctrl_read_stats:
	.fnstart
	@ args = 0, pretend = 0, frame = 48
	@ frame_needed = 0, uses_anonymous_args = 0
	movw	r0, #:lower16:kmalloc_caches
	strd	r4, [sp, #-36]!
	.save {r4, r5, r6, r7, r8, r9, r10, fp, lr}
	movt	r0, #:upper16:kmalloc_caches
	strd	r6, [sp, #8]
	strd	r8, [sp, #16]
	strd	r10, [sp, #24]
	str	lr, [sp, #32]
	ldr	r0, [r0, #40]
	.pad #92
	sub	sp, sp, #92
	str	r1, [sp, #76]
	strd	r2, [sp, #80]
	cmp	r0, #0
	beq	.L1990
	mov	r2, #1024
	movw	r1, #32976
	bl	kmem_cache_alloc_trace
	subs	r3, r0, #0
	str	r3, [sp, #60]
	beq	.L2001
.L1983:
	ldr	r4, .L2002
	mov	r10, #0
	movw	r3, #:lower16:.LC117
	movw	r2, #:lower16:.LC116
	movw	r1, #:lower16:.LC118
	movt	r3, #:upper16:.LC117
	movt	r2, #:upper16:.LC116
	movt	r1, #:upper16:.LC118
	mov	fp, r10
	str	r3, [sp, #64]
	str	r2, [sp, #68]
	str	r1, [sp, #72]
.L1988:
	ldr	r9, [r4]
	ldr	r3, [sp, #60]
	cmp	r9, #0
	add	r6, r9, #108
	add	r8, r3, r10
	rsb	r3, r10, #1024
	mov	r0, r6
	str	r3, [sp, #40]
	beq	.L1985
	bl	_raw_spin_lock_irqsave
	ldr	lr, [sp, #68]
	str	r0, [sp, #52]
	ldr	r3, [r9, #92]
	ldr	ip, [r9, #88]
	ldr	r2, [r9]
	ldr	r1, [r9, #8]
	str	r3, [sp, #44]
	ldr	r3, [sp, #64]
	cmp	ip, #0
	ldr	r5, [r9, #8]
	movne	r3, lr
	cmp	r2, #0
	mov	r7, r2
	mov	ip, r2
	str	r3, [sp, #48]
	ldr	r3, [r9, #96]
	mov	r0, r2
	ubfx	r5, r5, #1, #1
	str	r3, [sp, #40]
	and	r3, r1, #1
	str	r3, [sp, #56]
	beq	.L1987
	bl	smd_read_avail
	ldr	ip, [r9]
	mov	r7, r0
	cmp	ip, #0
	mov	r0, ip
	beq	.L1987
	bl	smd_write_avail
	mov	ip, r0
.L1987:
	ldr	lr, [sp, #40]
	rsb	r1, r10, #1024
	mov	r0, r8
	mov	r3, fp
	ldr	r2, [sp, #72]
	str	r9, [sp]
	stmib	sp, {r9, lr}
	ldr	lr, [sp, #44]
	str	r5, [sp, #24]
	str	r7, [sp, #28]
	str	ip, [sp, #32]
	str	lr, [sp, #12]
	ldr	lr, [sp, #48]
	str	lr, [sp, #16]
	ldr	lr, [sp, #56]
	str	lr, [sp, #20]
	bl	scnprintf
	add	r10, r10, r0
	ldr	r1, [sp, #52]
	mov	r0, r6
	bl	_raw_spin_unlock_irqrestore
.L1985:
	add	fp, fp, #1
	add	r4, r4, #84
	cmp	fp, #6
	bne	.L1988
	ldr	r5, [sp, #60]
	str	r10, [sp]
	ldrd	r0, [sp, #76]
	ldr	r2, [sp, #84]
	mov	r3, r5
	bl	simple_read_from_buffer
	mov	r4, r0
	mov	r0, r5
	bl	kfree
.L1982:
	mov	r0, r4
	add	sp, sp, #92
	@ sp needed
	ldrd	r4, [sp]
	ldrd	r6, [sp, #8]
	ldrd	r8, [sp, #16]
	ldrd	r10, [sp, #24]
	add	sp, sp, #32
	ldr	pc, [sp], #4
.L1990:
	mov	r3, #16
	str	r3, [sp, #60]
	b	.L1983
.L2001:
	mvn	r4, #11
	b	.L1982
.L2003:
	.align	2
.L2002:
	.word	.LANCHOR1+512
	.fnend
	.size	gsmd_ctrl_read_stats, .-gsmd_ctrl_read_stats
	.align	2
	.syntax unified
	.arm
	.fpu softvfp
	.type	gctrl_read_stats, %function
gctrl_read_stats:
	.fnstart
	@ args = 0, pretend = 0, frame = 32
	@ frame_needed = 0, uses_anonymous_args = 0
	movw	r0, #:lower16:kmalloc_caches
	strd	r4, [sp, #-36]!
	.save {r4, r5, r6, r7, r8, r9, r10, fp, lr}
	movt	r0, #:upper16:kmalloc_caches
	strd	r6, [sp, #8]
	strd	r8, [sp, #16]
	strd	r10, [sp, #24]
	str	lr, [sp, #32]
	ldr	r0, [r0, #40]
	.pad #68
	sub	sp, sp, #68
	str	r1, [sp, #52]
	strd	r2, [sp, #56]
	cmp	r0, #0
	beq	.L2012
	mov	r2, #1024
	movw	r1, #32976
	bl	kmem_cache_alloc_trace
	subs	r10, r0, #0
	beq	.L2020
.L2005:
	movw	r9, #:lower16:.LANCHOR1
	movt	r9, #:upper16:.LANCHOR1
	ldr	r3, [r9, #1020]
	cmp	r3, #0
	beq	.L2010
	mov	r5, #0
	movw	r3, #:lower16:.LC117
	str	r10, [sp, #36]
	movw	r2, #:lower16:.LC116
	movw	r1, #:lower16:.LC119
	movt	r3, #:upper16:.LC117
	movt	r2, #:upper16:.LC116
	movt	r1, #:upper16:.LC119
	mov	r7, r5
	add	r6, r9, #1024
	str	r3, [sp, #40]
	str	r2, [sp, #44]
	str	r1, [sp, #48]
.L2009:
	ldr	r4, [r6]
	mov	r3, r5
	cmp	r4, #0
	add	r8, r4, #4
	mov	r0, r8
	beq	.L2007
	bl	_raw_spin_lock_irqsave
	ldr	lr, [r4, #84]
	mov	fp, r0
	ldr	ip, [r4, #84]
	ldr	r3, [sp, #36]
	ldr	r2, [r4, #96]
	ldr	r10, [r4, #104]
	and	lr, lr, #1
	ubfx	ip, ip, #1, #1
	ldr	r1, [r4, #100]
	add	r0, r3, r5
	ldr	r3, [r4, #88]
	str	r7, [sp]
	str	r4, [sp, #4]
	str	ip, [sp, #28]
	ldr	ip, [sp, #44]
	str	r1, [sp, #8]
	rsb	r1, r5, #1024
	str	r10, [sp, #16]
	ldr	r10, [sp, #40]
	cmp	r3, #0
	str	r2, [sp, #12]
	ldr	r2, [sp, #48]
	movne	r10, ip
	str	r10, [sp, #20]
	ldr	r3, [r6, #24]
	str	lr, [sp, #24]
	bl	scnprintf
	add	r5, r5, r0
	mov	r1, fp
	mov	r0, r8
	bl	_raw_spin_unlock_irqrestore
	mov	r3, r5
.L2007:
	ldr	r2, [r9, #1020]
	add	r7, r7, #1
	add	r6, r6, #104
	cmp	r7, r2
	bcc	.L2009
	ldr	r10, [sp, #36]
.L2010:
	str	r3, [sp]
	ldrd	r0, [sp, #52]
	mov	r3, r10
	ldr	r2, [sp, #60]
	bl	simple_read_from_buffer
	mov	r4, r0
	mov	r0, r10
	bl	kfree
.L2004:
	mov	r0, r4
	add	sp, sp, #68
	@ sp needed
	ldrd	r4, [sp]
	ldrd	r6, [sp, #8]
	ldrd	r8, [sp, #16]
	ldrd	r10, [sp, #24]
	add	sp, sp, #32
	ldr	pc, [sp], #4
.L2012:
	mov	r10, #16
	b	.L2005
.L2020:
	mvn	r4, #11
	b	.L2004
	.fnend
	.size	gctrl_read_stats, .-gctrl_read_stats
	.align	2
	.syntax unified
	.arm
	.fpu softvfp
	.type	ghsic_data_read_stats, %function
ghsic_data_read_stats:
	.fnstart
	@ args = 0, pretend = 0, frame = 32
	@ frame_needed = 0, uses_anonymous_args = 0
	movw	r0, #:lower16:kmalloc_caches
	strd	r4, [sp, #-36]!
	.save {r4, r5, r6, r7, r8, r9, r10, fp, lr}
	movt	r0, #:upper16:kmalloc_caches
	strd	r6, [sp, #8]
	strd	r8, [sp, #16]
	strd	r10, [sp, #24]
	str	lr, [sp, #32]
	ldr	r0, [r0, #48]
	.pad #76
	sub	sp, sp, #76
	str	r1, [sp, #60]
	strd	r2, [sp, #64]
	cmp	r0, #0
	beq	.L2028
	mov	r2, #4096
	movw	r1, #32976
	bl	kmem_cache_alloc_trace
	subs	fp, r0, #0
	beq	.L2035
.L2022:
	movw	r10, #:lower16:.LANCHOR1
	movt	r10, #:upper16:.LANCHOR1
	ldr	r3, [r10, #1440]
	cmp	r3, #0
	beq	.L2026
	ldr	r7, .L2036
	mov	r5, #0
	movw	r3, #:lower16:.LC120
	movw	r2, #:lower16:.LC121
	movt	r3, #:upper16:.LC120
	str	r10, [sp, #48]
	movt	r2, #:upper16:.LC121
	mov	r6, r5
	str	r3, [sp, #52]
	str	r2, [sp, #56]
.L2025:
	ldr	r4, [r7]
	mov	r3, r5
	cmp	r4, #0
	add	r8, r4, #80
	add	r9, r4, #48
	mov	r0, r8
	beq	.L2024
	bl	_raw_spin_lock_irqsave
	ldr	lr, [r4, #180]
	rsb	r1, r5, #4096
	str	r0, [sp, #44]
	ldr	ip, [r4, #180]
	add	r0, fp, r5
	ldr	r3, [r4, #164]
	ldr	r2, [sp, #52]
	and	lr, lr, #1
	ubfx	ip, ip, #1, #1
	ubfx	r3, r3, #1, #1
	str	r3, [sp, #36]
	ldr	r10, [r4, #208]
	ldr	r3, [r7, #24]
	str	r10, [sp, #32]
	ldr	r10, [r4, #204]
	str	r10, [sp, #28]
	ldr	r10, [r4, #72]
	str	r10, [sp, #24]
	ldr	r10, [r4, #212]
	str	r10, [sp, #20]
	ldr	r10, [r4, #188]
	str	r6, [sp]
	stmib	sp, {r4, lr}
	str	ip, [sp, #12]
	str	r10, [sp, #16]
	bl	scnprintf
	add	r5, r0, r5
	ldr	r1, [sp, #44]
	mov	r0, r8
	bl	_raw_spin_unlock_irqrestore
	mov	r0, r9
	bl	_raw_spin_lock_irqsave
	ldr	ip, [r4, #164]
	rsb	r1, r5, #4096
	mov	r8, r0
	ldr	r3, [r4, #192]
	add	r0, fp, r5
	ldr	r2, [sp, #56]
	ubfx	ip, ip, #2, #1
	str	ip, [sp, #16]
	ldr	ip, [r4, #216]
	str	ip, [sp, #12]
	ldr	ip, [r4, #200]
	str	ip, [sp, #8]
	ldr	ip, [r4, #196]
	str	ip, [sp, #4]
	ldr	ip, [r4, #40]
	str	ip, [sp]
	bl	scnprintf
	add	r5, r5, r0
	mov	r1, r8
	mov	r0, r9
	bl	_raw_spin_unlock_irqrestore
	mov	r3, r5
.L2024:
	ldr	r2, [sp, #48]
	add	r6, r6, #1
	add	r7, r7, #104
	ldr	r2, [r2, #1440]
	cmp	r6, r2
	bcc	.L2025
.L2026:
	str	r3, [sp]
	ldrd	r0, [sp, #60]
	mov	r3, fp
	ldr	r2, [sp, #68]
	bl	simple_read_from_buffer
	mov	r4, r0
	mov	r0, fp
	bl	kfree
.L2021:
	mov	r0, r4
	add	sp, sp, #76
	@ sp needed
	ldrd	r4, [sp]
	ldrd	r6, [sp, #8]
	ldrd	r8, [sp, #16]
	ldrd	r10, [sp, #24]
	add	sp, sp, #32
	ldr	pc, [sp], #4
.L2028:
	mov	fp, #16
	b	.L2022
.L2035:
	mvn	r4, #11
	b	.L2021
.L2037:
	.align	2
.L2036:
	.word	.LANCHOR1+1444
	.fnend
	.size	ghsic_data_read_stats, .-ghsic_data_read_stats
	.align	2
	.syntax unified
	.arm
	.fpu softvfp
	.type	ghsuart_ctrl_read_stats, %function
ghsuart_ctrl_read_stats:
	.fnstart
	@ args = 0, pretend = 0, frame = 24
	@ frame_needed = 0, uses_anonymous_args = 0
	movw	r0, #:lower16:kmalloc_caches
	strd	r4, [sp, #-36]!
	.save {r4, r5, r6, r7, r8, r9, r10, fp, lr}
	movt	r0, #:upper16:kmalloc_caches
	strd	r6, [sp, #8]
	strd	r8, [sp, #16]
	strd	r10, [sp, #24]
	str	lr, [sp, #32]
	ldr	r0, [r0, #40]
	.pad #52
	sub	sp, sp, #52
	str	r1, [sp, #36]
	strd	r2, [sp, #40]
	cmp	r0, #0
	beq	.L2046
	mov	r2, #1024
	movw	r1, #32976
	bl	kmem_cache_alloc_trace
	subs	r9, r0, #0
	beq	.L2054
.L2039:
	movw	r7, #:lower16:.LANCHOR1
	movt	r7, #:upper16:.LANCHOR1
	ldr	r2, [r7, #1860]
	cmp	r2, #0
	beq	.L2044
	ldr	r6, .L2055
	mov	r4, #0
	movw	r10, #:lower16:.LC117
	movw	r3, #:lower16:.LC116
	movw	fp, #:lower16:.LC122
	movt	r10, #:upper16:.LC117
	movt	r3, #:upper16:.LC116
	movt	fp, #:upper16:.LC122
	mov	r5, r4
	str	r3, [sp, #24]
	strd	r10, [sp, #28]
.L2043:
	ldr	fp, [r6]
	mov	r2, r4
	add	r6, r6, #84
	cmp	fp, #0
	add	r8, fp, #8
	mov	r0, r8
	beq	.L2041
	bl	_raw_spin_lock_irqsave
	ldr	ip, [fp, #92]
	mov	r10, r0
	add	r0, r9, r4
	ldr	lr, [sp, #24]
	ldr	r2, [fp, #96]
	ldr	r1, [fp, #100]
	ldr	r3, [fp, #104]
	str	fp, [sp]
	cmp	ip, #0
	ldr	fp, [sp, #28]
	movne	fp, lr
	stmib	sp, {r1, r2, r3}
	rsb	r1, r4, #1024
	ldr	r2, [sp, #32]
	mov	r3, r5
	str	fp, [sp, #16]
	bl	scnprintf
	add	r4, r4, r0
	mov	r1, r10
	mov	r0, r8
	bl	_raw_spin_unlock_irqrestore
	mov	r2, r4
.L2041:
	ldr	r3, [r7, #1860]
	add	r5, r5, #1
	cmp	r5, r3
	bcc	.L2043
.L2044:
	str	r2, [sp]
	mov	r3, r9
	ldrd	r0, [sp, #36]
	ldr	r2, [sp, #44]
	bl	simple_read_from_buffer
	mov	r4, r0
	mov	r0, r9
	bl	kfree
.L2038:
	mov	r0, r4
	add	sp, sp, #52
	@ sp needed
	ldrd	r4, [sp]
	ldrd	r6, [sp, #8]
	ldrd	r8, [sp, #16]
	ldrd	r10, [sp, #24]
	add	sp, sp, #32
	ldr	pc, [sp], #4
.L2046:
	mov	r9, #16
	b	.L2039
.L2054:
	mvn	r4, #11
	b	.L2038
.L2056:
	.align	2
.L2055:
	.word	.LANCHOR1+1864
	.fnend
	.size	ghsuart_ctrl_read_stats, .-ghsuart_ctrl_read_stats
	.align	2
	.syntax unified
	.arm
	.fpu softvfp
	.type	ghsuart_data_read_stats, %function
ghsuart_data_read_stats:
	.fnstart
	@ args = 0, pretend = 0, frame = 32
	@ frame_needed = 0, uses_anonymous_args = 0
	movw	r0, #:lower16:kmalloc_caches
	strd	r4, [sp, #-36]!
	.save {r4, r5, r6, r7, r8, r9, r10, fp, lr}
	movt	r0, #:upper16:kmalloc_caches
	strd	r6, [sp, #8]
	strd	r8, [sp, #16]
	strd	r10, [sp, #24]
	str	lr, [sp, #32]
	ldr	r0, [r0, #40]
	.pad #76
	sub	sp, sp, #76
	str	r1, [sp, #60]
	strd	r2, [sp, #64]
	cmp	r0, #0
	beq	.L2064
	mov	r2, #1024
	movw	r1, #32976
	bl	kmem_cache_alloc_trace
	subs	fp, r0, #0
	beq	.L2071
.L2058:
	movw	r8, #:lower16:.LANCHOR1
	movt	r8, #:upper16:.LANCHOR1
	ldr	r3, [r8, #2032]
	cmp	r3, #0
	beq	.L2062
	ldr	r7, .L2072
	mov	r5, #0
	movw	r3, #:lower16:.LC123
	movw	r2, #:lower16:.LC124
	movt	r3, #:upper16:.LC123
	str	r8, [sp, #48]
	movt	r2, #:upper16:.LC124
	mov	r6, r5
	str	r3, [sp, #52]
	str	r2, [sp, #56]
.L2061:
	ldr	r4, [r7]
	mov	r3, r5
	cmp	r4, #0
	add	r8, r4, #104
	add	r9, r4, #72
	mov	r0, r8
	beq	.L2060
	bl	_raw_spin_lock_irqsave
	ldr	lr, [r4, #188]
	str	r0, [sp, #44]
	add	r0, fp, r5
	ldr	ip, [r4, #188]
	ldr	r1, [r4, #188]
	ldr	r2, [r4, #184]
	and	lr, lr, #1
	ldr	r3, [r7, #24]
	ubfx	ip, ip, #1, #1
	ubfx	r1, r1, #2, #1
	ubfx	r2, r2, #1, #1
	str	r2, [sp, #32]
	ldr	r2, [r4, #96]
	str	r2, [sp, #28]
	ldr	r10, [r4, #212]
	ldr	r2, [sp, #52]
	str	r10, [sp, #24]
	ldr	r10, [r4, #204]
	str	r6, [sp]
	stmib	sp, {r4, lr}
	str	ip, [sp, #12]
	str	r1, [sp, #16]
	rsb	r1, r5, #1024
	str	r10, [sp, #20]
	bl	scnprintf
	add	r5, r0, r5
	ldr	r1, [sp, #44]
	mov	r0, r8
	bl	_raw_spin_unlock_irqrestore
	mov	r0, r9
	bl	_raw_spin_lock_irqsave
	ldr	ip, [r4, #184]
	rsb	r1, r5, #1024
	mov	r8, r0
	ldr	r3, [r4, #208]
	add	r0, fp, r5
	ldr	r2, [sp, #56]
	ubfx	ip, ip, #2, #1
	str	ip, [sp, #4]
	ldr	ip, [r4, #64]
	str	ip, [sp]
	bl	scnprintf
	add	r5, r5, r0
	mov	r1, r8
	mov	r0, r9
	bl	_raw_spin_unlock_irqrestore
	mov	r3, r5
.L2060:
	ldr	r2, [sp, #48]
	add	r6, r6, #1
	add	r7, r7, #84
	ldr	r2, [r2, #2032]
	cmp	r6, r2
	bcc	.L2061
.L2062:
	str	r3, [sp]
	ldrd	r0, [sp, #60]
	mov	r3, fp
	ldr	r2, [sp, #68]
	bl	simple_read_from_buffer
	mov	r4, r0
	mov	r0, fp
	bl	kfree
.L2057:
	mov	r0, r4
	add	sp, sp, #76
	@ sp needed
	ldrd	r4, [sp]
	ldrd	r6, [sp, #8]
	ldrd	r8, [sp, #16]
	ldrd	r10, [sp, #24]
	add	sp, sp, #32
	ldr	pc, [sp], #4
.L2064:
	mov	fp, #16
	b	.L2058
.L2071:
	mvn	r4, #11
	b	.L2057
.L2073:
	.align	2
.L2072:
	.word	.LANCHOR1+2036
	.fnend
	.size	ghsuart_data_read_stats, .-ghsuart_data_read_stats
	.align	2
	.syntax unified
	.arm
	.fpu softvfp
	.type	debug_read_stats, %function
debug_read_stats:
	.fnstart
	@ args = 0, pretend = 0, frame = 0
	@ frame_needed = 0, uses_anonymous_args = 0
	strd	r4, [sp, #-36]!
	.save {r4, r5, r6, r7, r8, r9, r10, fp, lr}
	strd	r6, [sp, #8]
	movw	r6, #:lower16:.LANCHOR0
	movt	r6, #:upper16:.LANCHOR0
	strd	r8, [sp, #16]
	mov	r9, r1
	ldr	r4, [r6]
	strd	r10, [sp, #24]
	mov	r10, r2
	str	lr, [sp, #32]
	mov	fp, r3
	.pad #28
	sub	sp, sp, #28
	cmp	r6, r4
	moveq	lr, #0
	beq	.L2075
	movw	r8, #:lower16:debug_buffer
	movw	r7, #:lower16:.LC125
	sub	r4, r4, #4
	movt	r8, #:upper16:debug_buffer
	movt	r7, #:upper16:.LC125
	mov	r5, #0
.L2077:
	ldr	ip, [r4, #20]
	rsb	r1, r5, #4096
	add	r0, r8, r5
	mov	r2, r7
	mov	lr, r5
	cmp	ip, #0
	beq	.L2076
	ldr	lr, [ip, #136]
	ldr	r3, [r4]
	str	lr, [sp, #16]
	ldr	lr, [ip, #132]
	str	lr, [sp, #12]
	ldr	lr, [ip, #128]
	str	lr, [sp, #8]
	ldr	lr, [ip, #84]
	ldr	lr, [lr, #4]
	str	lr, [sp, #4]
	ldr	ip, [ip, #88]
	ldr	ip, [ip, #4]
	str	ip, [sp]
	bl	scnprintf
	add	r5, r5, r0
	mov	lr, r5
.L2076:
	ldr	r4, [r4, #4]
	cmp	r6, r4
	sub	r4, r4, #4
	bne	.L2077
.L2075:
	movw	r3, #:lower16:debug_buffer
	mov	r2, fp
	str	lr, [sp]
	mov	r1, r10
	mov	r0, r9
	movt	r3, #:upper16:debug_buffer
	bl	simple_read_from_buffer
	add	sp, sp, #28
	@ sp needed
	ldrd	r4, [sp]
	ldrd	r6, [sp, #8]
	ldrd	r8, [sp, #16]
	ldrd	r10, [sp, #24]
	add	sp, sp, #32
	ldr	pc, [sp], #4
	.fnend
	.size	debug_read_stats, .-debug_read_stats
	.section	.exit.text,"ax",%progbits
	.align	2
	.syntax unified
	.arm
	.fpu softvfp
	.type	gether_exit, %function
gether_exit:
	.fnstart
	@ args = 0, pretend = 0, frame = 0
	@ frame_needed = 0, uses_anonymous_args = 0
	@ link register save eliminated.
	movw	r3, #:lower16:.LANCHOR1
	movt	r3, #:upper16:.LANCHOR1
	ldr	r0, [r3, #2624]
	b	destroy_workqueue
	.fnend
	.size	gether_exit, .-gether_exit
	.text
	.align	2
	.syntax unified
	.arm
	.fpu softvfp
	.type	qdss_function_cleanup, %function
qdss_function_cleanup:
	.fnstart
	@ args = 0, pretend = 0, frame = 0
	@ frame_needed = 0, uses_anonymous_args = 0
	strd	r4, [sp, #-24]!
	.save {r4, r5, r6, r7, r8, lr}
	strd	r6, [sp, #8]
	movw	r7, #:lower16:.LANCHOR0
	movt	r7, #:upper16:.LANCHOR0
	str	r8, [sp, #16]
	ldr	r5, [r7, #248]!
	str	lr, [sp, #20]
	cmp	r5, r7
	ldr	r4, [r5]
	beq	.L2085
	ldr	r6, .L2091
	b	.L2088
.L2087:
	mov	r1, r8
	mov	r0, r6
	bl	_raw_spin_unlock_irqrestore
	cmp	r4, r7
	mov	r5, r4
	ldr	r3, [r4]
	beq	.L2085
	mov	r4, r3
.L2088:
	mov	r0, r6
	bl	_raw_spin_lock_irqsave
	mov	r8, r0
	ldr	r0, [r5, #80]
	bl	destroy_workqueue
	ldr	r3, [r5, #12]
	cmp	r3, #0
	bne	.L2087
	mov	r0, r5
	bl	list_del
	sub	r0, r5, #116
	bl	kfree
	b	.L2087
.L2085:
	ldrd	r4, [sp]
	ldrd	r6, [sp, #8]
	ldr	r8, [sp, #16]
	add	sp, sp, #20
	ldr	pc, [sp], #4
.L2092:
	.align	2
.L2091:
	.word	.LANCHOR1+2628
	.fnend
	.size	qdss_function_cleanup, .-qdss_function_cleanup
	.align	2
	.syntax unified
	.arm
	.fpu softvfp
	.type	rmnet_smd_command_complete, %function
rmnet_smd_command_complete:
	.fnstart
	@ args = 0, pretend = 0, frame = 0
	@ frame_needed = 0, uses_anonymous_args = 0
	strd	r4, [sp, #-24]!
	.save {r4, r5, r6, r7, r8, lr}
	strd	r6, [sp, #8]
	str	r8, [sp, #16]
	str	lr, [sp, #20]
	ldr	r4, [r1, #32]
	ldr	r2, [r1, #44]
	ldr	r8, [r4, #84]
	cmp	r2, #0
	blt	.L2101
	add	r6, r4, #164
	mov	r5, r1
	mov	r0, r6
	bl	_raw_spin_lock
	ldr	r2, [r4, #308]
	ldr	r3, [r4, #448]
	cmp	r2, #0
	add	r3, r3, #1
	str	r3, [r4, #448]
	beq	.L2102
.L2095:
	mov	r3, r4
	ldr	r7, [r3, #108]!
	cmp	r7, r3
	beq	.L2103
	mov	r0, r7
	bl	list_del
	mov	r0, r6
	bl	_raw_spin_unlock
	ldr	r1, [r5]
	ldr	r2, [r5, #48]
	ldr	r0, [r7, #-8]
	bl	memcpy
	ldr	r3, [r5, #48]
	mov	r0, r6
	str	r3, [r7, #-4]
	bl	_raw_spin_lock
	mov	r0, r7
	add	r2, r4, #124
	ldr	r1, [r4, #128]
	bl	__list_add
	mov	r0, r6
.L2100:
	ldrd	r4, [sp]
	ldrd	r6, [sp, #8]
	ldr	r8, [sp, #16]
	ldr	lr, [sp, #20]
	add	sp, sp, #24
	b	_raw_spin_unlock
.L2102:
	ldr	r0, [r4, #260]
	bl	smd_write_avail
	ldr	r3, [r5, #48]
	cmp	r0, r3
	strcc	r3, [r4, #308]
	bcc	.L2095
	mov	r0, r6
	bl	_raw_spin_unlock
	ldr	r0, [r4, #260]
	ldr	r1, [r5]
	ldr	r2, [r5, #48]
	bl	smd_write
	ldr	r3, [r5, #48]
	cmp	r3, r0
	beq	.L2097
	ldr	r0, [r8]
	movw	r1, #:lower16:.LC127
	movt	r1, #:upper16:.LC127
	add	r0, r0, #32
	bl	dev_err
.L2097:
	mov	r0, r6
	bl	_raw_spin_lock
	ldr	r3, [r4, #452]
	mov	r0, r6
	add	r3, r3, #1
	str	r3, [r4, #452]
	b	.L2100
.L2101:
	ldr	r0, [r8]
	movw	r1, #:lower16:.LC126
	ldrd	r4, [sp]
	movt	r1, #:upper16:.LC126
	ldrd	r6, [sp, #8]
	ldr	r8, [sp, #16]
	ldr	lr, [sp, #20]
	add	r0, r0, #32
	add	sp, sp, #24
	b	dev_err
.L2103:
	mov	r0, r6
	bl	_raw_spin_unlock
	ldr	r0, [r8]
	movw	r1, #:lower16:.LC128
	ldrd	r4, [sp]
	movt	r1, #:upper16:.LC128
	ldrd	r6, [sp, #8]
	ldr	r8, [sp, #16]
	ldr	lr, [sp, #20]
	add	r0, r0, #32
	add	sp, sp, #24
	b	dev_err
	.fnend
	.size	rmnet_smd_command_complete, .-rmnet_smd_command_complete
	.align	2
	.syntax unified
	.arm
	.fpu softvfp
	.type	rmnet_smd_complete_epout, %function
rmnet_smd_complete_epout:
	.fnstart
	@ args = 0, pretend = 0, frame = 0
	@ frame_needed = 0, uses_anonymous_args = 0
	strd	r4, [sp, #-24]!
	.save {r4, r5, r6, r7, r8, lr}
	strd	r6, [sp, #8]
	add	r7, r1, #36
	str	r8, [sp, #16]
	str	lr, [sp, #20]
	ldr	r4, [r1, #32]
	.pad #8
	sub	sp, sp, #8
	ldr	r3, [r1, #44]
	ldr	r8, [r4, #84]
	add	r6, r4, #164
	cmn	r3, #104
	beq	.L2120
	cmp	r3, #0
	mov	r5, r1
	beq	.L2107
	cmn	r3, #108
	beq	.L2120
	ldr	r2, [r0, #4]
	movw	r1, #:lower16:.LC129
	ldr	r0, [r8]
	movt	r1, #:upper16:.LC129
	ldr	lr, [r5, #4]
	ldr	ip, [r5, #48]
	add	r0, r0, #32
	stm	sp, {ip, lr}
	bl	dev_err
.L2120:
	mov	r0, r6
	bl	_raw_spin_lock
	ldr	r1, [r4, #152]
	mov	r0, r7
	add	r2, r4, #148
.L2119:
	bl	__list_add
	mov	r0, r6
	add	sp, sp, #8
	@ sp needed
	ldrd	r4, [sp]
	ldrd	r6, [sp, #8]
	ldr	r8, [sp, #16]
	ldr	lr, [sp, #20]
	add	sp, sp, #24
	b	_raw_spin_unlock
.L2107:
	mov	r0, r6
	bl	_raw_spin_lock
	ldr	r2, [r4, #372]
	ldr	r3, [r4, #432]
	cmp	r2, #0
	add	r3, r3, #1
	str	r3, [r4, #432]
	bne	.L2108
	ldr	r0, [r4, #324]
	bl	smd_write_avail
	ldr	r3, [r5, #48]
	cmp	r0, r3
	strcc	r3, [r4, #372]
	bcc	.L2108
	mov	r0, r6
	bl	_raw_spin_unlock
	ldr	r0, [r4, #324]
	ldr	r1, [r5]
	ldr	r2, [r5, #48]
	bl	smd_write
	ldr	r3, [r5, #48]
	cmp	r3, r0
	beq	.L2110
	ldr	r0, [r8]
	movw	r1, #:lower16:.LC130
	movt	r1, #:upper16:.LC130
	add	r0, r0, #32
	bl	dev_err
.L2110:
	mov	r0, r6
	bl	_raw_spin_lock
	mov	r0, r7
	add	r2, r4, #148
	ldr	r1, [r4, #152]
	ldr	r3, [r4, #436]
	add	r3, r3, #1
	str	r3, [r4, #436]
	bl	__list_add
	mov	r0, r6
	bl	_raw_spin_unlock
	mov	r0, r4
	add	sp, sp, #8
	@ sp needed
	ldrd	r4, [sp]
	ldrd	r6, [sp, #8]
	ldr	r8, [sp, #16]
	ldr	lr, [sp, #20]
	add	sp, sp, #24
	b	rmnet_smd_start_rx
.L2108:
	mov	r0, r7
	add	r2, r4, #156
	ldr	r1, [r4, #160]
	b	.L2119
	.fnend
	.size	rmnet_smd_complete_epout, .-rmnet_smd_complete_epout
	.align	2
	.syntax unified
	.arm
	.fpu softvfp
	.type	rmnet_data_rx_tlet, %function
rmnet_data_rx_tlet:
	.fnstart
	@ args = 0, pretend = 0, frame = 0
	@ frame_needed = 0, uses_anonymous_args = 0
	strd	r4, [sp, #-36]!
	.save {r4, r5, r6, r7, r8, r9, r10, fp, lr}
	mov	r5, r0
	strd	r6, [sp, #8]
	add	r6, r0, #164
	strd	r8, [sp, #16]
	add	r8, r0, #156
	strd	r10, [sp, #24]
	str	lr, [sp, #32]
	.pad #4
	sub	sp, sp, #4
	ldr	r10, [r0, #84]
	mov	r0, r6
	bl	_raw_spin_lock_irqsave
	ldr	r4, [r5, #156]
	mov	r7, r0
	cmp	r8, r4
	beq	.L2126
	add	r9, r5, #148
	b	.L2122
.L2124:
	bl	list_del
	mov	r1, r7
	mov	r0, r6
	bl	_raw_spin_unlock_irqrestore
	ldr	r1, [r4, #-36]
	ldr	r2, [r4, #12]
	ldr	r0, [r5, #324]
	bl	smd_write
	mov	fp, r0
	mov	r0, r6
	bl	_raw_spin_lock_irqsave
	ldr	r3, [r4, #12]
	mov	r7, r0
	mov	r2, r9
	mov	r0, r4
	cmp	r3, fp
	bne	.L2129
	ldr	r1, [r5, #152]
	ldr	r3, [r5, #436]
	add	r3, r3, #1
	str	r3, [r5, #436]
	bl	__list_add
	ldr	r4, [r5, #156]
	cmp	r4, r8
	beq	.L2126
.L2122:
	ldr	r0, [r5, #324]
	bl	smd_write_avail
	ldr	r3, [r4, #12]
	cmp	r0, r3
	mov	r0, r4
	bcs	.L2124
	str	r3, [r5, #372]
.L2123:
	mov	r0, r6
	mov	r1, r7
	bl	_raw_spin_unlock_irqrestore
	mov	r0, r5
	add	sp, sp, #4
	@ sp needed
	ldrd	r4, [sp]
	ldrd	r6, [sp, #8]
	ldrd	r8, [sp, #16]
	ldrd	r10, [sp, #24]
	ldr	lr, [sp, #32]
	add	sp, sp, #36
	b	rmnet_smd_start_rx
.L2126:
	mov	r3, #0
	str	r3, [r5, #372]
	b	.L2123
.L2129:
	ldr	r0, [r10]
	movw	r1, #:lower16:.LC131
	movt	r1, #:upper16:.LC131
	add	r0, r0, #32
	bl	dev_err
	b	.L2123
	.fnend
	.size	rmnet_data_rx_tlet, .-rmnet_data_rx_tlet
	.align	2
	.syntax unified
	.arm
	.fpu softvfp
	.type	rmnet_control_rx_tlet, %function
rmnet_control_rx_tlet:
	.fnstart
	@ args = 0, pretend = 0, frame = 0
	@ frame_needed = 0, uses_anonymous_args = 0
	strd	r4, [sp, #-36]!
	.save {r4, r5, r6, r7, r8, r9, r10, fp, lr}
	mov	r4, r0
	strd	r6, [sp, #8]
	add	r6, r0, #164
	add	r7, r0, #124
	strd	r8, [sp, #16]
	strd	r10, [sp, #24]
	str	lr, [sp, #32]
	.pad #4
	sub	sp, sp, #4
	ldr	r9, [r0, #84]
	mov	r0, r6
	bl	_raw_spin_lock_irqsave
	ldr	r5, [r4, #124]
	mov	r10, r0
	cmp	r7, r5
	beq	.L2135
	add	r8, r4, #108
	b	.L2131
.L2133:
	bl	list_del
	ldr	r3, [r4, #448]
	mov	r1, r10
	mov	r0, r6
	add	r3, r3, #1
	str	r3, [r4, #448]
	bl	_raw_spin_unlock_irqrestore
	ldmdb	r5, {r1, r2}
	ldr	r0, [r4, #260]
	bl	smd_write
	mov	fp, r0
	mov	r0, r6
	bl	_raw_spin_lock_irqsave
	ldr	r3, [r5, #-4]
	mov	r10, r0
	mov	r2, r8
	mov	r0, r5
	cmp	r3, fp
	bne	.L2138
	ldr	r1, [r4, #112]
	ldr	r3, [r4, #452]
	add	r3, r3, #1
	str	r3, [r4, #452]
	bl	__list_add
	ldr	r5, [r4, #124]
	cmp	r5, r7
	beq	.L2135
.L2131:
	ldr	r0, [r4, #260]
	bl	smd_write_avail
	ldr	r3, [r5, #-4]
	cmp	r0, r3
	mov	r0, r5
	bge	.L2133
	str	r3, [r4, #308]
.L2132:
	mov	r1, r10
	mov	r0, r6
	add	sp, sp, #4
	@ sp needed
	ldrd	r4, [sp]
	ldrd	r6, [sp, #8]
	ldrd	r8, [sp, #16]
	ldrd	r10, [sp, #24]
	ldr	lr, [sp, #32]
	add	sp, sp, #36
	b	_raw_spin_unlock_irqrestore
.L2135:
	mov	r3, #0
	str	r3, [r4, #308]
	b	.L2132
.L2138:
	ldr	r0, [r9]
	movw	r1, #:lower16:.LC127
	movt	r1, #:upper16:.LC127
	add	r0, r0, #32
	bl	dev_err
	b	.L2132
	.fnend
	.size	rmnet_control_rx_tlet, .-rmnet_control_rx_tlet
	.align	2
	.syntax unified
	.arm
	.fpu softvfp
	.type	grmnet_ctrl_smd_write_w, %function
grmnet_ctrl_smd_write_w:
	.fnstart
	@ args = 0, pretend = 0, frame = 0
	@ frame_needed = 0, uses_anonymous_args = 0
	strd	r4, [sp, #-32]!
	.save {r4, r5, r6, r7, r8, r9, r10, lr}
	mov	r5, r0
	strd	r6, [sp, #8]
	strd	r8, [sp, #16]
	str	r10, [sp, #24]
	str	lr, [sp, #28]
	ldr	r6, [r0, #16]
	add	r6, r6, #108
	mov	r0, r6
	bl	_raw_spin_lock_irqsave
	mov	r7, r0
	ldr	r0, [r5, #-68]
	cmp	r0, #0
	beq	.L2140
	ldr	r4, [r5, #-28]
	sub	r8, r5, #28
	cmp	r8, r4
	bne	.L2141
	b	.L2140
.L2149:
	bl	list_del
	mov	r1, r7
	mov	r0, r6
	bl	_raw_spin_unlock_irqrestore
	ldmdb	r4, {r1, r2}
	ldr	r0, [r5, #-68]
	bl	smd_write
	mov	r10, r0
	mov	r0, r6
	bl	_raw_spin_lock_irqsave
	ldr	r3, [r4, #-4]
	mov	r7, r0
	cmp	r3, r10
	bne	.L2148
	ldr	r0, [r4, #-8]
	bl	kfree
	mov	r0, r9
	bl	kfree
	ldr	r0, [r5, #-68]
	ldr	r3, [r5, #24]
	cmp	r0, #0
	add	r3, r3, #1
	str	r3, [r5, #24]
	beq	.L2140
	ldr	r4, [r5, #-28]
	cmp	r8, r4
	beq	.L2140
.L2141:
	bl	smd_write_avail
	ldr	r3, [r4, #-4]
	sub	r9, r4, #8
	cmp	r0, r3
	mov	r0, r4
	bge	.L2149
.L2140:
	mov	r1, r7
	mov	r0, r6
	ldrd	r4, [sp]
	ldrd	r6, [sp, #8]
	ldrd	r8, [sp, #16]
	ldr	r10, [sp, #24]
	ldr	lr, [sp, #28]
	add	sp, sp, #32
	b	_raw_spin_unlock_irqrestore
.L2148:
	movw	r0, #:lower16:.LC132
	mov	r2, r10
	ldr	r1, .L2150
	movt	r0, #:upper16:.LC132
	bl	printk
	ldr	r0, [r4, #-8]
	bl	kfree
	mov	r0, r9
	bl	kfree
	b	.L2140
.L2151:
	.align	2
.L2150:
	.word	.LANCHOR2+976
	.fnend
	.size	grmnet_ctrl_smd_write_w, .-grmnet_ctrl_smd_write_w
	.align	2
	.syntax unified
	.arm
	.fpu softvfp
	.type	rmnet_mux_smd_data_rx_tlet, %function
rmnet_mux_smd_data_rx_tlet:
	.fnstart
	@ args = 0, pretend = 0, frame = 0
	@ frame_needed = 0, uses_anonymous_args = 0
	strd	r4, [sp, #-36]!
	.save {r4, r5, r6, r7, r8, r9, r10, fp, lr}
	mov	r5, r0
	strd	r6, [sp, #8]
	add	r6, r0, #368
	strd	r8, [sp, #16]
	strd	r10, [sp, #24]
	str	lr, [sp, #32]
	.pad #4
	sub	sp, sp, #4
	ldr	r10, [r0, #84]
	mov	r0, r6
	bl	_raw_spin_lock_irqsave
	ldr	r3, [r5, #372]
	mov	r7, r0
	cmp	r3, #0
	beq	.L2153
	ldr	r4, [r5, #120]
	add	r8, r5, #120
	cmp	r8, r4
	beq	.L2154
	add	r9, r5, #112
	b	.L2155
.L2156:
	bl	list_del
	mov	r1, r7
	mov	r0, r6
	bl	_raw_spin_unlock_irqrestore
	ldr	r1, [r4, #-36]
	ldr	r2, [r4, #12]
	ldr	r0, [r5, #128]
	bl	smd_write
	mov	fp, r0
	mov	r0, r6
	bl	_raw_spin_lock_irqsave
	ldr	r3, [r4, #12]
	mov	r7, r0
	mov	r2, r9
	mov	r0, r4
	cmp	r3, fp
	bne	.L2164
	ldr	r1, [r5, #116]
	ldr	r3, [r5, #400]
	add	r3, r3, #1
	str	r3, [r5, #400]
	bl	__list_add
	ldr	r3, [r5, #372]
